(ima_dataset
Dataset
p0
(dp1
S'num_outcomes'
p2
I0
sS'title'
p3
Vaminoglycosides
p4
sS'outcome_names_to_follow_ups'
p5
(dp6
Vnephrotoxic
p7
ccopy_reg
_reconstructor
p8
(ctwo_way_dict
TwoWayDict
p9
c__builtin__
dict
p10
(dp11
I0
S'first'
p12
stp13
Rp14
(dp15
S'_reverse_map'
p16
(dp17
g12
I0
ssbsVclinical failure
p18
g8
(g9
g10
(dp19
I0
S'first'
p20
stp21
Rp22
(dp23
g16
(dp24
g20
I0
ssbsVddd
p25
g8
(g9
g10
(dp26
I0
S'first'
p27
stp28
Rp29
(dp30
g16
(dp31
g27
I0
ssbssS'notes'
p32
S''
p33
sS'num_follow_ups'
p34
I0
sS'num_treatments'
p35
I0
sS'is_diag'
p36
I00
sS'summary'
p37
NsS'studies'
p38
(lp39
(ima_dataset
Study
p40
(dp41
S'include'
p42
I00
sS'name'
p43
VGonzalez
p44
sS'covariate_dict'
p45
(dp46
sg32
g33
sS'outcomes'
p47
(lp48
(ima_dataset
Outcome
p49
(dp50
S'links'
p51
Nsg43
g18
sS'data_type'
p52
I0
sba(ima_dataset
Outcome
p53
(dp54
g51
Nsg43
g7
sg52
I0
sba(ima_dataset
Outcome
p55
(dp56
g51
Nsg43
g25
sg52
I0
sS'sub_type'
p57
NsbasS'outcomes_to_follow_ups'
p58
(dp59
g7
(dp60
g12
(ima_dataset
MetaAnalyticUnit
p61
(dp62
g36
I00
sS'tx_groups'
p63
(dp64
Vtx A
p65
(ima_dataset
TreatmentGroup
p66
(dp67
S'raw_data'
p68
(lp69
F5.0
aF27.0
asS'id'
p70
I0
sg43
S'tx A'
p71
sbsVtx B
p72
(ima_dataset
TreatmentGroup
p73
(dp74
g68
(lp75
F4.0
aF27.0
asg70
I1
sg43
S'tx B'
p76
sbssS'outcome'
p77
g53
sS'effects_dict'
p78
(dp79
S'YUY'
p80
(dp81
Vtx B-tx A
p82
(dp83
S'upper'
p84
NsS'lower'
p85
NsS'est'
p86
NsS'display_upper'
p87
NsS'display_est'
p88
NsS'display_lower'
p89
NsS'SE'
p90
NssVtx A-tx B
p91
(dp92
g84
Nsg85
Nsg86
Nsg87
Nsg88
Nsg89
Nsg90
NsssS'PR'
p93
(dp94
g65
(dp95
g84
Nsg85
Nsg86
Nsg87
Nsg88
Nsg89
Nsg90
Nssg72
(dp96
g84
Nsg85
Nsg86
Nsg87
Nsg88
Nsg89
Nsg90
NsssS'PAS'
p97
(dp98
g65
(dp99
g84
Nsg85
Nsg86
Nsg87
Nsg88
Nsg89
Nsg90
Nssg72
(dp100
g84
Nsg85
Nsg86
Nsg87
Nsg88
Nsg89
Nsg90
NsssS'RR'
p101
(dp102
Vtx B-tx A
p103
(dp104
g84
Nsg85
Nsg86
Nsg87
Nsg88
Nsg89
Nsg90
NssVtx A-tx B
p105
(dp106
g84
F1.4248523197251561
sg85
F-0.9785652170967367
sg86
F0.2231435513142097
sg87
F4.15724385450512
sg88
F1.25
sg89
F0.3758499752923444
sg90
NsssS'YUQ'
p107
(dp108
Vtx B-tx A
p109
(dp110
g84
Nsg85
Nsg86
Nsg87
Nsg88
Nsg89
Nsg90
NssVtx A-tx B
p111
(dp112
g84
Nsg85
Nsg86
Nsg87
Nsg88
Nsg89
Nsg90
NsssS'PETO'
p113
(dp114
Vtx B-tx A
p115
(dp116
g84
Nsg85
Nsg86
Nsg87
Nsg88
Nsg89
Nsg90
NssVtx A-tx B
p117
(dp118
g84
Nsg85
Nsg86
Nsg87
Nsg88
Nsg89
Nsg90
NsssS'RD'
p119
(dp120
Vtx B-tx A
p121
(dp122
g84
Nsg85
Nsg86
Nsg87
Nsg88
Nsg89
Nsg90
NssVtx A-tx B
p123
(dp124
g84
Nsg85
Nsg86
Nsg87
Nsg88
Nsg89
Nsg90
NsssS'AS'
p125
(dp126
Vtx B-tx A
p127
(dp128
g84
Nsg85
Nsg86
Nsg87
Nsg88
Nsg89
Nsg90
NssVtx A-tx B
p129
(dp130
g84
Nsg85
Nsg86
Nsg87
Nsg88
Nsg89
Nsg90
NsssS'PFT'
p131
(dp132
g65
(dp133
g84
Nsg85
Nsg86
Nsg87
Nsg88
Nsg89
Nsg90
Nssg72
(dp134
g84
Nsg85
Nsg86
Nsg87
Nsg88
Nsg89
Nsg90
NsssS'PLO'
p135
(dp136
g65
(dp137
g84
Nsg85
Nsg86
Nsg87
Nsg88
Nsg89
Nsg90
Nssg72
(dp138
g84
Nsg85
Nsg86
Nsg87
Nsg88
Nsg89
Nsg90
NsssS'PLN'
p139
(dp140
g65
(dp141
g84
Nsg85
Nsg86
Nsg87
Nsg88
Nsg89
Nsg90
Nssg72
(dp142
g84
Nsg85
Nsg86
Nsg87
Nsg88
Nsg89
Nsg90
NsssS'OR'
p143
(dp144
Vtx B-tx A
p145
(dp146
g84
F1.1712542900052285
sg85
F-1.7064449177753156
sg86
F-0.26759531388504354
sg87
F3.2260364872412746
sg88
F0.7652173913043478
sg89
F0.18150992968320936
sg90
NssVtx A-tx B
p147
(dp148
g84
F1.7064449177753158
sg85
F-1.1712542900052287
sg86
F0.26759531388504354
sg87
F5.50934046280549
sg88
F1.3068181818181248
sg89
F0.30997789515095425
sS'display_conf_level'
p149
F95.0
sS'display_se'
p150
F0.7341204303955249
sg90
F0.7341204303955249
ssssS'raw_data_length'
p151
I2
sbssg18
(dp152
N(ima_dataset
MetaAnalyticUnit
p153
(dp154
g78
(dp155
S'YUY'
p156
(dp157
S'tx B-tx A'
p158
(dp159
S'upper'
p160
NsS'lower'
p161
NsS'est'
p162
NsS'display_upper'
p163
NsS'display_est'
p164
NsS'display_lower'
p165
NsS'SE'
p166
NssS'tx A-tx B'
p167
(dp168
g160
Nsg161
Nsg162
Nsg163
Nsg164
Nsg165
Nsg166
NsssS'PR'
p169
(dp170
S'tx A'
p171
(dp172
g160
Nsg161
Nsg162
Nsg163
Nsg164
Nsg165
Nsg166
NssS'tx B'
p173
(dp174
g160
Nsg161
Nsg162
Nsg163
Nsg164
Nsg165
Nsg166
NsssS'PAS'
p175
(dp176
g171
(dp177
g160
Nsg161
Nsg162
Nsg163
Nsg164
Nsg165
Nsg166
Nssg173
(dp178
g160
Nsg161
Nsg162
Nsg163
Nsg164
Nsg165
Nsg166
NsssS'RR'
p179
(dp180
S'tx B-tx A'
p181
(dp182
g160
Nsg161
Nsg162
Nsg163
Nsg164
Nsg165
Nsg166
NssS'tx A-tx B'
p183
(dp184
g160
Nsg161
Nsg162
Nsg163
Nsg164
Nsg165
Nsg166
NsssS'YUQ'
p185
(dp186
S'tx B-tx A'
p187
(dp188
g160
Nsg161
Nsg162
Nsg163
Nsg164
Nsg165
Nsg166
NssS'tx A-tx B'
p189
(dp190
g160
Nsg161
Nsg162
Nsg163
Nsg164
Nsg165
Nsg166
NsssS'RD'
p191
(dp192
S'tx B-tx A'
p193
(dp194
g160
Nsg161
Nsg162
Nsg163
Nsg164
Nsg165
Nsg166
NssS'tx A-tx B'
p195
(dp196
g160
Nsg161
Nsg162
Nsg163
Nsg164
Nsg165
Nsg166
NsssS'AS'
p197
(dp198
S'tx B-tx A'
p199
(dp200
g160
Nsg161
Nsg162
Nsg163
Nsg164
Nsg165
Nsg166
NssS'tx A-tx B'
p201
(dp202
g160
Nsg161
Nsg162
Nsg163
Nsg164
Nsg165
Nsg166
NsssS'PFT'
p203
(dp204
g171
(dp205
g160
Nsg161
Nsg162
Nsg163
Nsg164
Nsg165
Nsg166
Nssg173
(dp206
g160
Nsg161
Nsg162
Nsg163
Nsg164
Nsg165
Nsg166
NsssS'PLO'
p207
(dp208
g171
(dp209
g160
Nsg161
Nsg162
Nsg163
Nsg164
Nsg165
Nsg166
Nssg173
(dp210
g160
Nsg161
Nsg162
Nsg163
Nsg164
Nsg165
Nsg166
NsssS'PLN'
p211
(dp212
g171
(dp213
g160
Nsg161
Nsg162
Nsg163
Nsg164
Nsg165
Nsg166
Nssg173
(dp214
g160
Nsg161
Nsg162
Nsg163
Nsg164
Nsg165
Nsg166
NsssS'OR'
p215
(dp216
S'tx B-tx A'
p217
(dp218
g160
Nsg161
Nsg162
Nsg163
Nsg164
Nsg165
Nsg166
NssS'tx A-tx B'
p219
(dp220
g160
Nsg161
Nsg162
Nsg163
Nsg164
Nsg165
Nsg166
Nssssg63
(dp221
g171
(ima_dataset
TreatmentGroup
p222
(dp223
g68
(lp224
g33
ag33
asg70
I0
sg43
g171
sbsg173
(ima_dataset
TreatmentGroup
p225
(dp226
g68
(lp227
g33
ag33
asg70
I1
sg43
g173
sbssg77
g49
sg36
I00
sg151
I2
sbsg20
(ima_dataset
MetaAnalyticUnit
p228
(dp229
g36
I00
sg63
(dp230
g65
(ima_dataset
TreatmentGroup
p231
(dp232
g68
(lp233
F6.0
aF27.0
asg70
I0
sg43
g71
sbsg72
(ima_dataset
TreatmentGroup
p234
(dp235
g68
(lp236
F9.0
aF27.0
asg70
I1
sg43
g76
sbssg77
g49
sg78
(dp237
S'YUY'
p238
(dp239
Vtx B-tx A
p240
(dp241
S'upper'
p242
NsS'lower'
p243
NsS'est'
p244
NsS'display_upper'
p245
NsS'display_est'
p246
NsS'display_lower'
p247
NsS'SE'
p248
NssVtx A-tx B
p249
(dp250
g242
Nsg243
Nsg244
Nsg245
Nsg246
Nsg247
Nsg248
NsssS'PR'
p251
(dp252
g65
(dp253
g242
Nsg243
Nsg244
Nsg245
Nsg246
Nsg247
Nsg248
Nssg72
(dp254
g242
Nsg243
Nsg244
Nsg245
Nsg246
Nsg247
Nsg248
NsssS'PAS'
p255
(dp256
g65
(dp257
g242
Nsg243
Nsg244
Nsg245
Nsg246
Nsg247
Nsg248
Nssg72
(dp258
g242
Nsg243
Nsg244
Nsg245
Nsg246
Nsg247
Nsg248
NsssS'RR'
p259
(dp260
Vtx B-tx A
p261
(dp262
g242
F1.290066368225204
sg243
F-0.4791361520088754
sg244
F0.4054651081081644
sg245
F3.633027665349979
sg246
F1.5
sg247
F0.6193181575409917
sg248
NssVtx A-tx B
p263
(dp264
g242
F0.4791361520088754
sg243
F-1.290066368225204
sg244
F-0.4054651081081644
sg245
F1.6146789623777686
sg246
F0.6666666666666666
sg247
F0.275252514462663
sg248
NsssS'YUQ'
p265
(dp266
Vtx B-tx A
p267
(dp268
g242
Nsg243
Nsg244
Nsg245
Nsg246
Nsg247
Nsg248
NssVtx A-tx B
p269
(dp270
g242
Nsg243
Nsg244
Nsg245
Nsg246
Nsg247
Nsg248
NsssS'PETO'
p271
(dp272
Vtx B-tx A
p273
(dp274
g242
Nsg243
Nsg244
Nsg245
Nsg246
Nsg247
Nsg248
NssVtx A-tx B
p275
(dp276
g242
Nsg243
Nsg244
Nsg245
Nsg246
Nsg247
Nsg248
NsssS'RD'
p277
(dp278
Vtx B-tx A
p279
(dp280
g242
Nsg243
Nsg244
Nsg245
Nsg246
Nsg247
Nsg248
NssVtx A-tx B
p281
(dp282
g242
Nsg243
Nsg244
Nsg245
Nsg246
Nsg247
Nsg248
NsssS'AS'
p283
(dp284
Vtx B-tx A
p285
(dp286
g242
Nsg243
Nsg244
Nsg245
Nsg246
Nsg247
Nsg248
NssVtx A-tx B
p287
(dp288
g242
Nsg243
Nsg244
Nsg245
Nsg246
Nsg247
Nsg248
NsssS'PFT'
p289
(dp290
g65
(dp291
g242
Nsg243
Nsg244
Nsg245
Nsg246
Nsg247
Nsg248
Nssg72
(dp292
g242
Nsg243
Nsg244
Nsg245
Nsg246
Nsg247
Nsg248
NsssS'PLO'
p293
(dp294
g65
(dp295
g242
Nsg243
Nsg244
Nsg245
Nsg246
Nsg247
Nsg248
Nssg72
(dp296
g242
Nsg243
Nsg244
Nsg245
Nsg246
Nsg247
Nsg248
NsssS'PLN'
p297
(dp298
g65
(dp299
g242
Nsg243
Nsg244
Nsg245
Nsg246
Nsg247
Nsg248
Nssg72
(dp300
g242
Nsg243
Nsg244
Nsg245
Nsg246
Nsg247
Nsg248
NsssS'OR'
p301
(dp302
Vtx B-tx A
p303
(dp304
g242
F1.7693318224137426
sg243
F-0.6501002465428974
sg244
F0.5596157879354225
sg245
F5.8669318990168495
sg246
F1.7499999999999998
sg247
F0.5219934460996893
sg248
NssVtx A-tx B
p305
(dp306
g242
F0.6501002465428976
sg243
F-1.7693318224137429
sg244
F-0.5596157879354227
sg245
F1.9157328649852905
sg246
F0.571428571428813
sg247
F0.17044683954339362
sS'display_conf_level'
p307
F95.0
sS'display_se'
p308
F0.6172133998483676
sg248
F0.6172133998483676
ssssg151
I2
sbssg25
(dp309
g27
(ima_dataset
MetaAnalyticUnit
p310
(dp311
g78
(dp312
S'YUY'
p313
(dp314
Vtx B-tx A
p315
(dp316
S'upper'
p317
NsS'lower'
p318
NsS'est'
p319
NsS'display_upper'
p320
NsS'display_est'
p321
NsS'display_lower'
p322
NsS'SE'
p323
NssVtx A-tx B
p324
(dp325
g317
Nsg318
Nsg319
Nsg320
Nsg321
Nsg322
Nsg323
NsssS'PR'
p326
(dp327
g65
(dp328
g317
Nsg318
Nsg319
Nsg320
Nsg321
Nsg322
Nsg323
Nssg72
(dp329
g317
Nsg318
Nsg319
Nsg320
Nsg321
Nsg322
Nsg323
NsssS'PAS'
p330
(dp331
g65
(dp332
g317
Nsg318
Nsg319
Nsg320
Nsg321
Nsg322
Nsg323
Nssg72
(dp333
g317
Nsg318
Nsg319
Nsg320
Nsg321
Nsg322
Nsg323
NsssS'RR'
p334
(dp335
Vtx B-tx A
p336
(dp337
g317
Nsg318
Nsg319
Nsg320
Nsg321
Nsg322
Nsg323
NssVtx A-tx B
p338
(dp339
g317
Nsg318
Nsg319
Nsg320
Nsg321
Nsg322
Nsg323
NsssS'YUQ'
p340
(dp341
Vtx B-tx A
p342
(dp343
g317
Nsg318
Nsg319
Nsg320
Nsg321
Nsg322
Nsg323
NssVtx A-tx B
p344
(dp345
g317
Nsg318
Nsg319
Nsg320
Nsg321
Nsg322
Nsg323
NsssS'RD'
p346
(dp347
Vtx B-tx A
p348
(dp349
g317
Nsg318
Nsg319
Nsg320
Nsg321
Nsg322
Nsg323
NssVtx A-tx B
p350
(dp351
g317
Nsg318
Nsg319
Nsg320
Nsg321
Nsg322
Nsg323
NsssS'AS'
p352
(dp353
Vtx B-tx A
p354
(dp355
g317
Nsg318
Nsg319
Nsg320
Nsg321
Nsg322
Nsg323
NssVtx A-tx B
p356
(dp357
g317
Nsg318
Nsg319
Nsg320
Nsg321
Nsg322
Nsg323
NsssS'PFT'
p358
(dp359
g65
(dp360
g317
Nsg318
Nsg319
Nsg320
Nsg321
Nsg322
Nsg323
Nssg72
(dp361
g317
Nsg318
Nsg319
Nsg320
Nsg321
Nsg322
Nsg323
NsssS'PLO'
p362
(dp363
g65
(dp364
g317
Nsg318
Nsg319
Nsg320
Nsg321
Nsg322
Nsg323
Nssg72
(dp365
g317
Nsg318
Nsg319
Nsg320
Nsg321
Nsg322
Nsg323
NsssS'PLN'
p366
(dp367
g65
(dp368
g317
Nsg318
Nsg319
Nsg320
Nsg321
Nsg322
Nsg323
Nssg72
(dp369
g317
Nsg318
Nsg319
Nsg320
Nsg321
Nsg322
Nsg323
NsssS'OR'
p370
(dp371
Vtx B-tx A
p372
(dp373
g317
Nsg318
Nsg319
Nsg320
Nsg321
Nsg322
Nsg323
NssVtx A-tx B
p374
(dp375
g317
Nsg318
Nsg319
Nsg320
Nsg321
Nsg322
Nsg149
F95.0
sg150
Nsg323
Nssssg63
(dp376
g65
(ima_dataset
TreatmentGroup
p377
(dp378
g68
(lp379
g33
ag33
asg70
I0
sg43
g65
sbsg72
(ima_dataset
TreatmentGroup
p380
(dp381
g68
(lp382
g33
ag33
asg70
I1
sg43
g72
sbssg77
g55
sg36
I00
sg151
I2
sbsssS'manually_excluded'
p383
I00
sS'year'
p384
I1993
sS'N'
p385
Nsg70
I0
sba(ima_dataset
Study
p386
(dp387
g42
I00
sg43
VPrins
p388
sg45
(dp389
sg32
g33
sg47
(lp390
g49
ag53
ag55
asg58
(dp391
g7
(dp392
g12
(ima_dataset
MetaAnalyticUnit
p393
(dp394
g36
I00
sg63
(dp395
g65
(ima_dataset
TreatmentGroup
p396
(dp397
g68
(lp398
F2.0
aF59.0
asg70
I0
sg43
g71
sbsg72
(ima_dataset
TreatmentGroup
p399
(dp400
g68
(lp401
F11.0
aF64.0
asg70
I1
sg43
g76
sbssg77
g53
sg78
(dp402
g80
(dp403
Vtx B-tx A
p404
(dp405
g84
Nsg85
Nsg86
Nsg87
Nsg88
Nsg89
Nsg90
NssVtx A-tx B
p406
(dp407
g84
Nsg85
Nsg86
Nsg87
Nsg88
Nsg89
Nsg90
Nsssg93
(dp408
g65
(dp409
g84
Nsg85
Nsg86
Nsg87
Nsg88
Nsg89
Nsg90
Nssg72
(dp410
g84
Nsg85
Nsg86
Nsg87
Nsg88
Nsg89
Nsg90
Nsssg97
(dp411
g65
(dp412
g84
Nsg85
Nsg86
Nsg87
Nsg88
Nsg89
Nsg90
Nssg72
(dp413
g84
Nsg85
Nsg86
Nsg87
Nsg88
Nsg89
Nsg90
Nsssg101
(dp414
Vtx B-tx A
p415
(dp416
g84
Nsg85
Nsg86
Nsg87
Nsg88
Nsg89
Nsg90
NssVtx A-tx B
p417
(dp418
g84
F-0.15888182340073564
sg85
F-3.0879230821682104
sg86
F-1.623402452784473
sg87
F0.8530971691346033
sg88
F0.19722650231124803
sg89
F0.045596556431417815
sg90
Nsssg107
(dp419
Vtx B-tx A
p420
(dp421
g84
Nsg85
Nsg86
Nsg87
Nsg88
Nsg89
Nsg90
NssVtx A-tx B
p422
(dp423
g84
Nsg85
Nsg86
Nsg87
Nsg88
Nsg89
Nsg90
Nsssg113
(dp424
Vtx B-tx A
p425
(dp426
g84
Nsg85
Nsg86
Nsg87
Nsg88
Nsg89
Nsg90
NssVtx A-tx B
p427
(dp428
g84
Nsg85
Nsg86
Nsg87
Nsg88
Nsg89
Nsg90
Nsssg119
(dp429
Vtx B-tx A
p430
(dp431
g84
Nsg85
Nsg86
Nsg87
Nsg88
Nsg89
Nsg90
NssVtx A-tx B
p432
(dp433
g84
Nsg85
Nsg86
Nsg87
Nsg88
Nsg89
Nsg90
Nsssg125
(dp434
Vtx B-tx A
p435
(dp436
g84
Nsg85
Nsg86
Nsg87
Nsg88
Nsg89
Nsg90
NssVtx A-tx B
p437
(dp438
g84
Nsg85
Nsg86
Nsg87
Nsg88
Nsg89
Nsg90
Nsssg131
(dp439
g65
(dp440
g84
Nsg85
Nsg86
Nsg87
Nsg88
Nsg89
Nsg90
Nssg72
(dp441
g84
Nsg85
Nsg86
Nsg87
Nsg88
Nsg89
Nsg90
Nsssg135
(dp442
g65
(dp443
g84
Nsg85
Nsg86
Nsg87
Nsg88
Nsg89
Nsg90
Nssg72
(dp444
g84
Nsg85
Nsg86
Nsg87
Nsg88
Nsg89
Nsg90
Nsssg139
(dp445
g65
(dp446
g84
Nsg85
Nsg86
Nsg87
Nsg88
Nsg89
Nsg90
Nssg72
(dp447
g84
Nsg85
Nsg86
Nsg87
Nsg88
Nsg89
Nsg90
Nsssg143
(dp448
Vtx B-tx A
p449
(dp450
g84
F3.3298692951266005
sg85
F0.2251455979151067
sg86
F1.7775074465208536
sg87
F27.934690264456812
sg88
F5.915094339622642
sg89
F1.2525050650428668
sg90
NssVtx A-tx B
p451
(dp452
g84
F-0.22514559791510647
sg85
F-3.329869295126601
sg86
F-1.7775074465208536
sg87
F0.7983999649261952
sg88
F0.16905901116441863
sg89
F0.03579778370655385
sg149
F95.0
sg150
F0.7920359051750846
sg90
F0.7920359051750846
ssssg151
I2
sbssg18
(dp453
N(ima_dataset
MetaAnalyticUnit
p454
(dp455
g78
(dp456
g156
(dp457
S'tx B-tx A'
p458
(dp459
g160
Nsg161
Nsg162
Nsg163
Nsg164
Nsg165
Nsg166
NssS'tx A-tx B'
p460
(dp461
g160
Nsg161
Nsg162
Nsg163
Nsg164
Nsg165
Nsg166
Nsssg169
(dp462
g171
(dp463
g160
Nsg161
Nsg162
Nsg163
Nsg164
Nsg165
Nsg166
Nssg173
(dp464
g160
Nsg161
Nsg162
Nsg163
Nsg164
Nsg165
Nsg166
Nsssg175
(dp465
g171
(dp466
g160
Nsg161
Nsg162
Nsg163
Nsg164
Nsg165
Nsg166
Nssg173
(dp467
g160
Nsg161
Nsg162
Nsg163
Nsg164
Nsg165
Nsg166
Nsssg179
(dp468
S'tx B-tx A'
p469
(dp470
g160
Nsg161
Nsg162
Nsg163
Nsg164
Nsg165
Nsg166
NssS'tx A-tx B'
p471
(dp472
g160
Nsg161
Nsg162
Nsg163
Nsg164
Nsg165
Nsg166
Nsssg185
(dp473
S'tx B-tx A'
p474
(dp475
g160
Nsg161
Nsg162
Nsg163
Nsg164
Nsg165
Nsg166
NssS'tx A-tx B'
p476
(dp477
g160
Nsg161
Nsg162
Nsg163
Nsg164
Nsg165
Nsg166
Nsssg191
(dp478
S'tx B-tx A'
p479
(dp480
g160
Nsg161
Nsg162
Nsg163
Nsg164
Nsg165
Nsg166
NssS'tx A-tx B'
p481
(dp482
g160
Nsg161
Nsg162
Nsg163
Nsg164
Nsg165
Nsg166
Nsssg197
(dp483
S'tx B-tx A'
p484
(dp485
g160
Nsg161
Nsg162
Nsg163
Nsg164
Nsg165
Nsg166
NssS'tx A-tx B'
p486
(dp487
g160
Nsg161
Nsg162
Nsg163
Nsg164
Nsg165
Nsg166
Nsssg203
(dp488
g171
(dp489
g160
Nsg161
Nsg162
Nsg163
Nsg164
Nsg165
Nsg166
Nssg173
(dp490
g160
Nsg161
Nsg162
Nsg163
Nsg164
Nsg165
Nsg166
Nsssg207
(dp491
g171
(dp492
g160
Nsg161
Nsg162
Nsg163
Nsg164
Nsg165
Nsg166
Nssg173
(dp493
g160
Nsg161
Nsg162
Nsg163
Nsg164
Nsg165
Nsg166
Nsssg211
(dp494
g171
(dp495
g160
Nsg161
Nsg162
Nsg163
Nsg164
Nsg165
Nsg166
Nssg173
(dp496
g160
Nsg161
Nsg162
Nsg163
Nsg164
Nsg165
Nsg166
Nsssg215
(dp497
S'tx B-tx A'
p498
(dp499
g160
Nsg161
Nsg162
Nsg163
Nsg164
Nsg165
Nsg166
NssS'tx A-tx B'
p500
(dp501
g160
Nsg161
Nsg162
Nsg163
Nsg164
Nsg165
Nsg166
Nssssg63
(dp502
g171
(ima_dataset
TreatmentGroup
p503
(dp504
g68
(lp505
g33
ag33
asg70
I0
sg43
g171
sbsg173
(ima_dataset
TreatmentGroup
p506
(dp507
g68
(lp508
g33
ag33
asg70
I1
sg43
g173
sbssg77
g49
sg36
I00
sg151
I2
sbsg20
(ima_dataset
MetaAnalyticUnit
p509
(dp510
g36
I00
sg63
(dp511
g65
(ima_dataset
TreatmentGroup
p512
(dp513
g68
(lp514
F3.0
aF59.0
asg70
I0
sg43
g71
sbsg72
(ima_dataset
TreatmentGroup
p515
(dp516
g68
(lp517
F7.0
aF64.0
asg70
I1
sg43
g76
sbssg77
g49
sg78
(dp518
g238
(dp519
Vtx B-tx A
p520
(dp521
g242
Nsg243
Nsg244
Nsg245
Nsg246
Nsg247
Nsg248
NssVtx A-tx B
p522
(dp523
g242
Nsg243
Nsg244
Nsg245
Nsg246
Nsg247
Nsg248
Nsssg251
(dp524
g65
(dp525
g242
Nsg243
Nsg244
Nsg245
Nsg246
Nsg247
Nsg248
Nssg72
(dp526
g242
Nsg243
Nsg244
Nsg245
Nsg246
Nsg247
Nsg248
Nsssg255
(dp527
g65
(dp528
g242
Nsg243
Nsg244
Nsg245
Nsg246
Nsg247
Nsg248
Nssg72
(dp529
g242
Nsg243
Nsg244
Nsg245
Nsg246
Nsg247
Nsg248
Nsssg259
(dp530
Vtx B-tx A
p531
(dp532
g242
F2.0713769945153624
sg243
F-0.5394725526488597
sg244
F0.7659522209332512
sg245
F7.9357430724513245
sg246
F2.1510416666666665
sg247
F0.5830557024708278
sg248
NssVtx A-tx B
p533
(dp534
g242
F0.5394725526488597
sg243
F-2.0713769945153624
sg244
F-0.7659522209332512
sg245
F1.7151019975660615
sg246
F0.4648910411622276
sg247
F0.12601214415212958
sg248
Nsssg265
(dp535
Vtx B-tx A
p536
(dp537
g242
Nsg243
Nsg244
Nsg245
Nsg246
Nsg247
Nsg248
NssVtx A-tx B
p538
(dp539
g242
Nsg243
Nsg244
Nsg245
Nsg246
Nsg247
Nsg248
Nsssg271
(dp540
Vtx B-tx A
p541
(dp542
g242
Nsg243
Nsg244
Nsg245
Nsg246
Nsg247
Nsg248
NssVtx A-tx B
p543
(dp544
g242
Nsg243
Nsg244
Nsg245
Nsg246
Nsg247
Nsg248
Nsssg277
(dp545
Vtx B-tx A
p546
(dp547
g242
Nsg243
Nsg244
Nsg245
Nsg246
Nsg247
Nsg248
NssVtx A-tx B
p548
(dp549
g242
Nsg243
Nsg244
Nsg245
Nsg246
Nsg247
Nsg248
Nsssg283
(dp550
Vtx B-tx A
p551
(dp552
g242
Nsg243
Nsg244
Nsg245
Nsg246
Nsg247
Nsg248
NssVtx A-tx B
p553
(dp554
g242
Nsg243
Nsg244
Nsg245
Nsg246
Nsg247
Nsg248
Nsssg289
(dp555
g65
(dp556
g242
Nsg243
Nsg244
Nsg245
Nsg246
Nsg247
Nsg248
Nssg72
(dp557
g242
Nsg243
Nsg244
Nsg245
Nsg246
Nsg247
Nsg248
Nsssg293
(dp558
g65
(dp559
g242
Nsg243
Nsg244
Nsg245
Nsg246
Nsg247
Nsg248
Nssg72
(dp560
g242
Nsg243
Nsg244
Nsg245
Nsg246
Nsg247
Nsg248
Nsssg297
(dp561
g65
(dp562
g242
Nsg243
Nsg244
Nsg245
Nsg246
Nsg247
Nsg248
Nssg72
(dp563
g242
Nsg243
Nsg244
Nsg245
Nsg246
Nsg247
Nsg248
Nsssg301
(dp564
Vtx B-tx A
p565
(dp566
g242
F2.2314747394819814
sg243
F-0.5722781729063757
sg244
F0.8295982832878028
sg245
F9.31359107707857
sg246
F2.2923976608187138
sg247
F0.5642385404122224
sg248
NssVtx A-tx B
p567
(dp568
g242
F0.5722781729063757
sg243
F-2.2314747394819814
sg244
F-0.8295982832878028
sg245
F1.7723000617239695
sg246
F0.4362244897958323
sg247
F0.10736997058664674
sg307
F95.0
sg308
F0.7152562328961152
sg248
F0.7152562328961152
ssssg151
I2
sbssg25
(dp569
g27
(ima_dataset
MetaAnalyticUnit
p570
(dp571
g78
(dp572
g313
(dp573
Vtx B-tx A
p574
(dp575
g317
Nsg318
Nsg319
Nsg320
Nsg321
Nsg322
Nsg323
NssVtx A-tx B
p576
(dp577
g317
Nsg318
Nsg319
Nsg320
Nsg321
Nsg322
Nsg323
Nsssg326
(dp578
g65
(dp579
g317
Nsg318
Nsg319
Nsg320
Nsg321
Nsg322
Nsg323
Nssg72
(dp580
g317
Nsg318
Nsg319
Nsg320
Nsg321
Nsg322
Nsg323
Nsssg330
(dp581
g65
(dp582
g317
Nsg318
Nsg319
Nsg320
Nsg321
Nsg322
Nsg323
Nssg72
(dp583
g317
Nsg318
Nsg319
Nsg320
Nsg321
Nsg322
Nsg323
Nsssg334
(dp584
Vtx B-tx A
p585
(dp586
g317
Nsg318
Nsg319
Nsg320
Nsg321
Nsg322
Nsg323
NssVtx A-tx B
p587
(dp588
g317
Nsg318
Nsg319
Nsg320
Nsg321
Nsg322
Nsg323
Nsssg340
(dp589
Vtx B-tx A
p590
(dp591
g317
Nsg318
Nsg319
Nsg320
Nsg321
Nsg322
Nsg323
NssVtx A-tx B
p592
(dp593
g317
Nsg318
Nsg319
Nsg320
Nsg321
Nsg322
Nsg323
Nsssg346
(dp594
Vtx B-tx A
p595
(dp596
g317
Nsg318
Nsg319
Nsg320
Nsg321
Nsg322
Nsg323
NssVtx A-tx B
p597
(dp598
g317
Nsg318
Nsg319
Nsg320
Nsg321
Nsg322
Nsg323
Nsssg352
(dp599
Vtx B-tx A
p600
(dp601
g317
Nsg318
Nsg319
Nsg320
Nsg321
Nsg322
Nsg323
NssVtx A-tx B
p602
(dp603
g317
Nsg318
Nsg319
Nsg320
Nsg321
Nsg322
Nsg323
Nsssg358
(dp604
g65
(dp605
g317
Nsg318
Nsg319
Nsg320
Nsg321
Nsg322
Nsg323
Nssg72
(dp606
g317
Nsg318
Nsg319
Nsg320
Nsg321
Nsg322
Nsg323
Nsssg362
(dp607
g65
(dp608
g317
Nsg318
Nsg319
Nsg320
Nsg321
Nsg322
Nsg323
Nssg72
(dp609
g317
Nsg318
Nsg319
Nsg320
Nsg321
Nsg322
Nsg323
Nsssg366
(dp610
g65
(dp611
g317
Nsg318
Nsg319
Nsg320
Nsg321
Nsg322
Nsg323
Nssg72
(dp612
g317
Nsg318
Nsg319
Nsg320
Nsg321
Nsg322
Nsg323
Nsssg370
(dp613
Vtx B-tx A
p614
(dp615
g317
Nsg318
Nsg319
Nsg320
Nsg321
Nsg322
Nsg323
NssVtx A-tx B
p616
(dp617
g317
Nsg318
Nsg319
Nsg320
Nsg321
Nsg322
Nsg149
F95.0
sg150
Nsg323
Nssssg63
(dp618
g65
(ima_dataset
TreatmentGroup
p619
(dp620
g68
(lp621
g33
ag33
asg70
I0
sg43
g65
sbsg72
(ima_dataset
TreatmentGroup
p622
(dp623
g68
(lp624
g33
ag33
asg70
I1
sg43
g72
sbssg77
g55
sg36
I00
sg151
I2
sbsssg383
I00
sg384
I1993
sg385
Nsg70
I1
sba(ima_dataset
Study
p625
(dp626
g42
I00
sg43
VGiamarellou
p627
sg45
(dp628
sg32
g33
sg47
(lp629
g49
ag53
ag55
asg58
(dp630
g7
(dp631
g12
(ima_dataset
MetaAnalyticUnit
p632
(dp633
g36
I00
sg63
(dp634
g65
(ima_dataset
TreatmentGroup
p635
(dp636
g68
(lp637
F3.0
aF30.0
asg70
I0
sg43
g71
sbsg72
(ima_dataset
TreatmentGroup
p638
(dp639
g68
(lp640
F1.0
aF30.0
asg70
I1
sg43
g76
sbssg77
g53
sg78
(dp641
g80
(dp642
Vtx B-tx A
p643
(dp644
g84
Nsg85
Nsg86
Nsg87
Nsg88
Nsg89
Nsg90
NssVtx A-tx B
p645
(dp646
g84
Nsg85
Nsg86
Nsg87
Nsg88
Nsg89
Nsg90
Nsssg93
(dp647
g65
(dp648
g84
Nsg85
Nsg86
Nsg87
Nsg88
Nsg89
Nsg90
Nssg72
(dp649
g84
Nsg85
Nsg86
Nsg87
Nsg88
Nsg89
Nsg90
Nsssg97
(dp650
g65
(dp651
g84
Nsg85
Nsg86
Nsg87
Nsg88
Nsg89
Nsg90
Nssg72
(dp652
g84
Nsg85
Nsg86
Nsg87
Nsg88
Nsg89
Nsg90
Nsssg101
(dp653
Vtx B-tx A
p654
(dp655
g84
Nsg85
Nsg86
Nsg87
Nsg88
Nsg89
Nsg90
NssVtx A-tx B
p656
(dp657
g84
F3.304478975380136
sg85
F-1.1072543980439158
sg86
F1.09861228866811
sg87
F27.234348125670888
sg88
F3.000000000000001
sg89
F0.33046504210308875
sg90
Nsssg107
(dp658
Vtx B-tx A
p659
(dp660
g84
Nsg85
Nsg86
Nsg87
Nsg88
Nsg89
Nsg90
NssVtx A-tx B
p661
(dp662
g84
Nsg85
Nsg86
Nsg87
Nsg88
Nsg89
Nsg90
Nsssg113
(dp663
Vtx B-tx A
p664
(dp665
g84
Nsg85
Nsg86
Nsg87
Nsg88
Nsg89
Nsg90
NssVtx A-tx B
p666
(dp667
g84
Nsg85
Nsg86
Nsg87
Nsg88
Nsg89
Nsg90
Nsssg119
(dp668
Vtx B-tx A
p669
(dp670
g84
Nsg85
Nsg86
Nsg87
Nsg88
Nsg89
Nsg90
NssVtx A-tx B
p671
(dp672
g84
Nsg85
Nsg86
Nsg87
Nsg88
Nsg89
Nsg90
Nsssg125
(dp673
Vtx B-tx A
p674
(dp675
g84
Nsg85
Nsg86
Nsg87
Nsg88
Nsg89
Nsg90
NssVtx A-tx B
p676
(dp677
g84
Nsg85
Nsg86
Nsg87
Nsg88
Nsg89
Nsg90
Nsssg131
(dp678
g65
(dp679
g84
Nsg85
Nsg86
Nsg87
Nsg88
Nsg89
Nsg90
Nssg72
(dp680
g84
Nsg85
Nsg86
Nsg87
Nsg88
Nsg89
Nsg90
Nsssg135
(dp681
g65
(dp682
g84
Nsg85
Nsg86
Nsg87
Nsg88
Nsg89
Nsg90
Nssg72
(dp683
g84
Nsg85
Nsg86
Nsg87
Nsg88
Nsg89
Nsg90
Nsssg139
(dp684
g65
(dp685
g84
Nsg85
Nsg86
Nsg87
Nsg88
Nsg89
Nsg90
Nssg72
(dp686
g84
Nsg85
Nsg86
Nsg87
Nsg88
Nsg89
Nsg90
Nsssg143
(dp687
Vtx B-tx A
p688
(dp689
g84
F1.153005466733426
sg85
F-3.493147972033936
sg86
F-1.170071252650255
sg87
F3.167699031428309
sg88
F0.3103448275862068
sg89
F0.030405007247827034
sg90
NssVtx A-tx B
p690
(dp691
g84
F3.4931479720339365
sg85
F-1.1530054667334264
sg86
F1.170071252650255
sg87
F32.889319573095364
sg88
F3.222222222221401
sg89
F0.3156865567346933
sg149
F95.0
sg150
F1.1852650036979324
sg90
F1.1852650036979324
ssssg151
I2
sbssg18
(dp692
N(ima_dataset
MetaAnalyticUnit
p693
(dp694
g78
(dp695
g156
(dp696
S'tx B-tx A'
p697
(dp698
g160
Nsg161
Nsg162
Nsg163
Nsg164
Nsg165
Nsg166
NssS'tx A-tx B'
p699
(dp700
g160
Nsg161
Nsg162
Nsg163
Nsg164
Nsg165
Nsg166
Nsssg169
(dp701
g171
(dp702
g160
Nsg161
Nsg162
Nsg163
Nsg164
Nsg165
Nsg166
Nssg173
(dp703
g160
Nsg161
Nsg162
Nsg163
Nsg164
Nsg165
Nsg166
Nsssg175
(dp704
g171
(dp705
g160
Nsg161
Nsg162
Nsg163
Nsg164
Nsg165
Nsg166
Nssg173
(dp706
g160
Nsg161
Nsg162
Nsg163
Nsg164
Nsg165
Nsg166
Nsssg179
(dp707
S'tx B-tx A'
p708
(dp709
g160
Nsg161
Nsg162
Nsg163
Nsg164
Nsg165
Nsg166
NssS'tx A-tx B'
p710
(dp711
g160
Nsg161
Nsg162
Nsg163
Nsg164
Nsg165
Nsg166
Nsssg185
(dp712
S'tx B-tx A'
p713
(dp714
g160
Nsg161
Nsg162
Nsg163
Nsg164
Nsg165
Nsg166
NssS'tx A-tx B'
p715
(dp716
g160
Nsg161
Nsg162
Nsg163
Nsg164
Nsg165
Nsg166
Nsssg191
(dp717
S'tx B-tx A'
p718
(dp719
g160
Nsg161
Nsg162
Nsg163
Nsg164
Nsg165
Nsg166
NssS'tx A-tx B'
p720
(dp721
g160
Nsg161
Nsg162
Nsg163
Nsg164
Nsg165
Nsg166
Nsssg197
(dp722
S'tx B-tx A'
p723
(dp724
g160
Nsg161
Nsg162
Nsg163
Nsg164
Nsg165
Nsg166
NssS'tx A-tx B'
p725
(dp726
g160
Nsg161
Nsg162
Nsg163
Nsg164
Nsg165
Nsg166
Nsssg203
(dp727
g171
(dp728
g160
Nsg161
Nsg162
Nsg163
Nsg164
Nsg165
Nsg166
Nssg173
(dp729
g160
Nsg161
Nsg162
Nsg163
Nsg164
Nsg165
Nsg166
Nsssg207
(dp730
g171
(dp731
g160
Nsg161
Nsg162
Nsg163
Nsg164
Nsg165
Nsg166
Nssg173
(dp732
g160
Nsg161
Nsg162
Nsg163
Nsg164
Nsg165
Nsg166
Nsssg211
(dp733
g171
(dp734
g160
Nsg161
Nsg162
Nsg163
Nsg164
Nsg165
Nsg166
Nssg173
(dp735
g160
Nsg161
Nsg162
Nsg163
Nsg164
Nsg165
Nsg166
Nsssg215
(dp736
S'tx B-tx A'
p737
(dp738
g160
Nsg161
Nsg162
Nsg163
Nsg164
Nsg165
Nsg166
NssS'tx A-tx B'
p739
(dp740
g160
Nsg161
Nsg162
Nsg163
Nsg164
Nsg165
Nsg166
Nssssg63
(dp741
g171
(ima_dataset
TreatmentGroup
p742
(dp743
g68
(lp744
g33
ag33
asg70
I0
sg43
g171
sbsg173
(ima_dataset
TreatmentGroup
p745
(dp746
g68
(lp747
g33
ag33
asg70
I1
sg43
g173
sbssg77
g49
sg36
I00
sg151
I2
sbsg20
(ima_dataset
MetaAnalyticUnit
p748
(dp749
g36
I00
sg63
(dp750
g65
(ima_dataset
TreatmentGroup
p751
(dp752
g68
(lp753
F0.0
aF30.0
asg70
I0
sg43
g71
sbsg72
(ima_dataset
TreatmentGroup
p754
(dp755
g68
(lp756
F5.0
aF30.0
asg70
I1
sg43
g76
sbssg77
g49
sg78
(dp757
g238
(dp758
Vtx B-tx A
p759
(dp760
g242
Nsg243
Nsg244
Nsg245
Nsg246
Nsg247
Nsg248
NssVtx A-tx B
p761
(dp762
g242
Nsg243
Nsg244
Nsg245
Nsg246
Nsg247
Nsg248
Nsssg251
(dp763
g65
(dp764
g242
Nsg243
Nsg244
Nsg245
Nsg246
Nsg247
Nsg248
Nssg72
(dp765
g242
Nsg243
Nsg244
Nsg245
Nsg246
Nsg247
Nsg248
Nsssg255
(dp766
g65
(dp767
g242
Nsg243
Nsg244
Nsg245
Nsg246
Nsg247
Nsg248
Nssg72
(dp768
g242
Nsg243
Nsg244
Nsg245
Nsg246
Nsg247
Nsg248
Nsssg259
(dp769
Vtx B-tx A
p770
(dp771
g242
F5.24982946677064
sg243
F-0.4540389211738991
sg244
F2.3978952727983707
sg245
F190.53377334828946
sg246
F11.000000000000002
sg247
F0.6350580155614509
sg248
NssVtx A-tx B
p772
(dp773
g242
F0.4540389211738991
sg243
F-5.24982946677064
sg244
F-2.3978952727983707
sg245
F1.5746592838701612
sg246
F0.0909090909090909
sg247
F0.005248413351747529
sg248
Nsssg265
(dp774
Vtx B-tx A
p775
(dp776
g242
Nsg243
Nsg244
Nsg245
Nsg246
Nsg247
Nsg248
NssVtx A-tx B
p777
(dp778
g242
Nsg243
Nsg244
Nsg245
Nsg246
Nsg247
Nsg248
Nsssg271
(dp779
Vtx B-tx A
p780
(dp781
g242
Nsg243
Nsg244
Nsg245
Nsg246
Nsg247
Nsg248
NssVtx A-tx B
p782
(dp783
g242
Nsg243
Nsg244
Nsg245
Nsg246
Nsg247
Nsg248
Nsssg277
(dp784
Vtx B-tx A
p785
(dp786
g242
Nsg243
Nsg244
Nsg245
Nsg246
Nsg247
Nsg248
NssVtx A-tx B
p787
(dp788
g242
Nsg243
Nsg244
Nsg245
Nsg246
Nsg247
Nsg248
Nsssg283
(dp789
Vtx B-tx A
p790
(dp791
g242
Nsg243
Nsg244
Nsg245
Nsg246
Nsg247
Nsg248
NssVtx A-tx B
p792
(dp793
g242
Nsg243
Nsg244
Nsg245
Nsg246
Nsg247
Nsg248
Nsssg289
(dp794
g65
(dp795
g242
Nsg243
Nsg244
Nsg245
Nsg246
Nsg247
Nsg248
Nssg72
(dp796
g242
Nsg243
Nsg244
Nsg245
Nsg246
Nsg247
Nsg248
Nsssg293
(dp797
g65
(dp798
g242
Nsg243
Nsg244
Nsg245
Nsg246
Nsg247
Nsg248
Nssg72
(dp799
g242
Nsg243
Nsg244
Nsg245
Nsg246
Nsg247
Nsg248
Nsssg297
(dp800
g65
(dp801
g242
Nsg243
Nsg244
Nsg245
Nsg246
Nsg247
Nsg248
Nssg72
(dp802
g242
Nsg243
Nsg244
Nsg245
Nsg246
Nsg247
Nsg248
Nsssg301
(dp803
Vtx B-tx A
p804
(dp805
g242
F5.519384601903521
sg243
F-0.3654975934088083
sg244
F2.5769435042473563
sg245
F249.48145952354145
sg246
F13.156862745098042
sg247
F0.6938513091271002
sg248
NssVtx A-tx B
p806
(dp807
g242
F0.3654975934088083
sg243
F-5.519384601903521
sg244
F-2.5769435042473563
sg245
F1.4412309767898859
sg246
F0.07600596125166194
sg247
F0.00400831389199549
sg307
F95.0
sg308
F1.5012730442323252
sg248
F1.5012730442323252
ssssg151
I2
sbssg25
(dp808
g27
(ima_dataset
MetaAnalyticUnit
p809
(dp810
g78
(dp811
g313
(dp812
Vtx B-tx A
p813
(dp814
g317
Nsg318
Nsg319
Nsg320
Nsg321
Nsg322
Nsg323
NssVtx A-tx B
p815
(dp816
g317
Nsg318
Nsg319
Nsg320
Nsg321
Nsg322
Nsg323
Nsssg326
(dp817
g65
(dp818
g317
Nsg318
Nsg319
Nsg320
Nsg321
Nsg322
Nsg323
Nssg72
(dp819
g317
Nsg318
Nsg319
Nsg320
Nsg321
Nsg322
Nsg323
Nsssg330
(dp820
g65
(dp821
g317
Nsg318
Nsg319
Nsg320
Nsg321
Nsg322
Nsg323
Nssg72
(dp822
g317
Nsg318
Nsg319
Nsg320
Nsg321
Nsg322
Nsg323
Nsssg334
(dp823
Vtx B-tx A
p824
(dp825
g317
Nsg318
Nsg319
Nsg320
Nsg321
Nsg322
Nsg323
NssVtx A-tx B
p826
(dp827
g317
Nsg318
Nsg319
Nsg320
Nsg321
Nsg322
Nsg323
Nsssg340
(dp828
Vtx B-tx A
p829
(dp830
g317
Nsg318
Nsg319
Nsg320
Nsg321
Nsg322
Nsg323
NssVtx A-tx B
p831
(dp832
g317
Nsg318
Nsg319
Nsg320
Nsg321
Nsg322
Nsg323
Nsssg346
(dp833
Vtx B-tx A
p834
(dp835
g317
Nsg318
Nsg319
Nsg320
Nsg321
Nsg322
Nsg323
NssVtx A-tx B
p836
(dp837
g317
Nsg318
Nsg319
Nsg320
Nsg321
Nsg322
Nsg323
Nsssg352
(dp838
Vtx B-tx A
p839
(dp840
g317
Nsg318
Nsg319
Nsg320
Nsg321
Nsg322
Nsg323
NssVtx A-tx B
p841
(dp842
g317
Nsg318
Nsg319
Nsg320
Nsg321
Nsg322
Nsg323
Nsssg358
(dp843
g65
(dp844
g317
Nsg318
Nsg319
Nsg320
Nsg321
Nsg322
Nsg323
Nssg72
(dp845
g317
Nsg318
Nsg319
Nsg320
Nsg321
Nsg322
Nsg323
Nsssg362
(dp846
g65
(dp847
g317
Nsg318
Nsg319
Nsg320
Nsg321
Nsg322
Nsg323
Nssg72
(dp848
g317
Nsg318
Nsg319
Nsg320
Nsg321
Nsg322
Nsg323
Nsssg366
(dp849
g65
(dp850
g317
Nsg318
Nsg319
Nsg320
Nsg321
Nsg322
Nsg323
Nssg72
(dp851
g317
Nsg318
Nsg319
Nsg320
Nsg321
Nsg322
Nsg323
Nsssg370
(dp852
Vtx B-tx A
p853
(dp854
g317
Nsg318
Nsg319
Nsg320
Nsg321
Nsg322
Nsg323
NssVtx A-tx B
p855
(dp856
g317
Nsg318
Nsg319
Nsg320
Nsg321
Nsg322
Nsg149
F95.0
sg150
Nsg323
Nssssg63
(dp857
g65
(ima_dataset
TreatmentGroup
p858
(dp859
g68
(lp860
g33
ag33
asg70
I0
sg43
g65
sbsg72
(ima_dataset
TreatmentGroup
p861
(dp862
g68
(lp863
g33
ag33
asg70
I1
sg43
g72
sbssg77
g55
sg36
I00
sg151
I2
sbsssg383
I00
sg384
I1991
sg385
Nsg70
I2
sba(ima_dataset
Study
p864
(dp865
g42
I00
sg43
VMaller
p866
sg45
(dp867
sg32
g33
sg47
(lp868
g49
ag53
ag55
asg58
(dp869
g7
(dp870
g12
(ima_dataset
MetaAnalyticUnit
p871
(dp872
g36
I00
sg63
(dp873
g65
(ima_dataset
TreatmentGroup
p874
(dp875
g68
(lp876
F9.0
aF164.0
asg70
I0
sg43
g71
sbsg72
(ima_dataset
TreatmentGroup
p877
(dp878
g68
(lp879
F11.0
aF152.0
asg70
I1
sg43
g76
sbssg77
g53
sg78
(dp880
g80
(dp881
Vtx B-tx A
p882
(dp883
g84
Nsg85
Nsg86
Nsg87
Nsg88
Nsg89
Nsg90
NssVtx A-tx B
p884
(dp885
g84
Nsg85
Nsg86
Nsg87
Nsg88
Nsg89
Nsg90
Nsssg93
(dp886
g65
(dp887
g84
Nsg85
Nsg86
Nsg87
Nsg88
Nsg89
Nsg90
Nssg72
(dp888
g84
Nsg85
Nsg86
Nsg87
Nsg88
Nsg89
Nsg90
Nsssg97
(dp889
g65
(dp890
g84
Nsg85
Nsg86
Nsg87
Nsg88
Nsg89
Nsg90
Nssg72
(dp891
g84
Nsg85
Nsg86
Nsg87
Nsg88
Nsg89
Nsg90
Nsssg101
(dp892
Vtx B-tx A
p893
(dp894
g84
Nsg85
Nsg86
Nsg87
Nsg88
Nsg89
Nsg90
NssVtx A-tx B
p895
(dp896
g84
F0.5761950858475995
sg85
F-1.1295082907277463
sg86
F-0.2766566024400734
sg87
F1.7792556200375218
sg88
F0.7583148558758314
sg89
F0.32319213392725216
sg90
Nsssg107
(dp897
Vtx B-tx A
p898
(dp899
g84
Nsg85
Nsg86
Nsg87
Nsg88
Nsg89
Nsg90
NssVtx A-tx B
p900
(dp901
g84
Nsg85
Nsg86
Nsg87
Nsg88
Nsg89
Nsg90
Nsssg113
(dp902
Vtx B-tx A
p903
(dp904
g84
Nsg85
Nsg86
Nsg87
Nsg88
Nsg89
Nsg90
NssVtx A-tx B
p905
(dp906
g84
Nsg85
Nsg86
Nsg87
Nsg88
Nsg89
Nsg90
Nsssg119
(dp907
Vtx B-tx A
p908
(dp909
g84
Nsg85
Nsg86
Nsg87
Nsg88
Nsg89
Nsg90
NssVtx A-tx B
p910
(dp911
g84
Nsg85
Nsg86
Nsg87
Nsg88
Nsg89
Nsg90
Nsssg125
(dp912
Vtx B-tx A
p913
(dp914
g84
Nsg85
Nsg86
Nsg87
Nsg88
Nsg89
Nsg90
NssVtx A-tx B
p915
(dp916
g84
Nsg85
Nsg86
Nsg87
Nsg88
Nsg89
Nsg90
Nsssg131
(dp917
g65
(dp918
g84
Nsg85
Nsg86
Nsg87
Nsg88
Nsg89
Nsg90
Nssg72
(dp919
g84
Nsg85
Nsg86
Nsg87
Nsg88
Nsg89
Nsg90
Nsssg135
(dp920
g65
(dp921
g84
Nsg85
Nsg86
Nsg87
Nsg88
Nsg89
Nsg90
Nssg72
(dp922
g84
Nsg85
Nsg86
Nsg87
Nsg88
Nsg89
Nsg90
Nsssg139
(dp923
g65
(dp924
g84
Nsg85
Nsg86
Nsg87
Nsg88
Nsg89
Nsg90
Nssg72
(dp925
g84
Nsg85
Nsg86
Nsg87
Nsg88
Nsg89
Nsg90
Nsssg143
(dp926
Vtx B-tx A
p927
(dp928
g84
F1.2053250873799186
sg85
F-0.6146532433734598
sg86
F0.29533592200322945
sg87
F3.3378439926699914
sg88
F1.3435776201733647
sg89
F0.5408283986294743
sg90
NssVtx A-tx B
p929
(dp930
g84
F0.6146532433734601
sg85
F-1.205325087379919
sg86
F-0.29533592200322945
sg87
F1.849015330063405
sg88
F0.7442815249268571
sg89
F0.29959458926059734
sg149
F95.0
sg150
F0.46428871783082143
sg90
F0.46428871783082143
ssssg151
I2
sbssg18
(dp931
N(ima_dataset
MetaAnalyticUnit
p932
(dp933
g78
(dp934
g156
(dp935
S'tx B-tx A'
p936
(dp937
g160
Nsg161
Nsg162
Nsg163
Nsg164
Nsg165
Nsg166
NssS'tx A-tx B'
p938
(dp939
g160
Nsg161
Nsg162
Nsg163
Nsg164
Nsg165
Nsg166
Nsssg169
(dp940
g171
(dp941
g160
Nsg161
Nsg162
Nsg163
Nsg164
Nsg165
Nsg166
Nssg173
(dp942
g160
Nsg161
Nsg162
Nsg163
Nsg164
Nsg165
Nsg166
Nsssg175
(dp943
g171
(dp944
g160
Nsg161
Nsg162
Nsg163
Nsg164
Nsg165
Nsg166
Nssg173
(dp945
g160
Nsg161
Nsg162
Nsg163
Nsg164
Nsg165
Nsg166
Nsssg179
(dp946
S'tx B-tx A'
p947
(dp948
g160
Nsg161
Nsg162
Nsg163
Nsg164
Nsg165
Nsg166
NssS'tx A-tx B'
p949
(dp950
g160
Nsg161
Nsg162
Nsg163
Nsg164
Nsg165
Nsg166
Nsssg185
(dp951
S'tx B-tx A'
p952
(dp953
g160
Nsg161
Nsg162
Nsg163
Nsg164
Nsg165
Nsg166
NssS'tx A-tx B'
p954
(dp955
g160
Nsg161
Nsg162
Nsg163
Nsg164
Nsg165
Nsg166
Nsssg191
(dp956
S'tx B-tx A'
p957
(dp958
g160
Nsg161
Nsg162
Nsg163
Nsg164
Nsg165
Nsg166
NssS'tx A-tx B'
p959
(dp960
g160
Nsg161
Nsg162
Nsg163
Nsg164
Nsg165
Nsg166
Nsssg197
(dp961
S'tx B-tx A'
p962
(dp963
g160
Nsg161
Nsg162
Nsg163
Nsg164
Nsg165
Nsg166
NssS'tx A-tx B'
p964
(dp965
g160
Nsg161
Nsg162
Nsg163
Nsg164
Nsg165
Nsg166
Nsssg203
(dp966
g171
(dp967
g160
Nsg161
Nsg162
Nsg163
Nsg164
Nsg165
Nsg166
Nssg173
(dp968
g160
Nsg161
Nsg162
Nsg163
Nsg164
Nsg165
Nsg166
Nsssg207
(dp969
g171
(dp970
g160
Nsg161
Nsg162
Nsg163
Nsg164
Nsg165
Nsg166
Nssg173
(dp971
g160
Nsg161
Nsg162
Nsg163
Nsg164
Nsg165
Nsg166
Nsssg211
(dp972
g171
(dp973
g160
Nsg161
Nsg162
Nsg163
Nsg164
Nsg165
Nsg166
Nssg173
(dp974
g160
Nsg161
Nsg162
Nsg163
Nsg164
Nsg165
Nsg166
Nsssg215
(dp975
S'tx B-tx A'
p976
(dp977
g160
Nsg161
Nsg162
Nsg163
Nsg164
Nsg165
Nsg166
NssS'tx A-tx B'
p978
(dp979
g160
Nsg161
Nsg162
Nsg163
Nsg164
Nsg165
Nsg166
Nssssg63
(dp980
g171
(ima_dataset
TreatmentGroup
p981
(dp982
g68
(lp983
g33
ag33
asg70
I0
sg43
g171
sbsg173
(ima_dataset
TreatmentGroup
p984
(dp985
g68
(lp986
g33
ag33
asg70
I1
sg43
g173
sbssg77
g49
sg36
I00
sg151
I2
sbsg20
(ima_dataset
MetaAnalyticUnit
p987
(dp988
g36
I00
sg63
(dp989
g65
(ima_dataset
TreatmentGroup
p990
(dp991
g68
(lp992
F19.0
aF164.0
asg70
I0
sg43
g71
sbsg72
(ima_dataset
TreatmentGroup
p993
(dp994
g68
(lp995
F13.0
aF152.0
asg70
I1
sg43
g76
sbssg77
g49
sg78
(dp996
g238
(dp997
Vtx B-tx A
p998
(dp999
g242
Nsg243
Nsg244
Nsg245
Nsg246
Nsg247
Nsg248
NssVtx A-tx B
p1000
(dp1001
g242
Nsg243
Nsg244
Nsg245
Nsg246
Nsg247
Nsg248
Nsssg251
(dp1002
g65
(dp1003
g242
Nsg243
Nsg244
Nsg245
Nsg246
Nsg247
Nsg248
Nssg72
(dp1004
g242
Nsg243
Nsg244
Nsg245
Nsg246
Nsg247
Nsg248
Nsssg255
(dp1005
g65
(dp1006
g242
Nsg243
Nsg244
Nsg245
Nsg246
Nsg247
Nsg248
Nssg72
(dp1007
g242
Nsg243
Nsg244
Nsg245
Nsg246
Nsg247
Nsg248
Nsssg259
(dp1008
Vtx B-tx A
p1009
(dp1010
g242
F0.3665579173351251
sg243
F-0.9735653467890885
sg244
F-0.3035037147269817
sg245
F1.4427599589425772
sg246
F0.7382271468144045
sg247
F0.3777338821443039
sg248
NssVtx A-tx B
p1011
(dp1012
g242
F0.9735653467890885
sg243
F-0.3665579173351251
sg244
F0.3035037147269817
sg245
F2.647366432482153
sg246
F1.3545966228893058
sg247
F0.6931159918888493
sg248
Nsssg265
(dp1013
Vtx B-tx A
p1014
(dp1015
g242
Nsg243
Nsg244
Nsg245
Nsg246
Nsg247
Nsg248
NssVtx A-tx B
p1016
(dp1017
g242
Nsg243
Nsg244
Nsg245
Nsg246
Nsg247
Nsg248
Nsssg271
(dp1018
Vtx B-tx A
p1019
(dp1020
g242
Nsg243
Nsg244
Nsg245
Nsg246
Nsg247
Nsg248
NssVtx A-tx B
p1021
(dp1022
g242
Nsg243
Nsg244
Nsg245
Nsg246
Nsg247
Nsg248
Nsssg277
(dp1023
Vtx B-tx A
p1024
(dp1025
g242
Nsg243
Nsg244
Nsg245
Nsg246
Nsg247
Nsg248
NssVtx A-tx B
p1026
(dp1027
g242
Nsg243
Nsg244
Nsg245
Nsg246
Nsg247
Nsg248
Nsssg283
(dp1028
Vtx B-tx A
p1029
(dp1030
g242
Nsg243
Nsg244
Nsg245
Nsg246
Nsg247
Nsg248
NssVtx A-tx B
p1031
(dp1032
g242
Nsg243
Nsg244
Nsg245
Nsg246
Nsg247
Nsg248
Nsssg289
(dp1033
g65
(dp1034
g242
Nsg243
Nsg244
Nsg245
Nsg246
Nsg247
Nsg248
Nssg72
(dp1035
g242
Nsg243
Nsg244
Nsg245
Nsg246
Nsg247
Nsg248
Nsssg293
(dp1036
g65
(dp1037
g242
Nsg243
Nsg244
Nsg245
Nsg246
Nsg247
Nsg248
Nssg72
(dp1038
g242
Nsg243
Nsg244
Nsg245
Nsg246
Nsg247
Nsg248
Nsssg297
(dp1039
g65
(dp1040
g242
Nsg243
Nsg244
Nsg245
Nsg246
Nsg247
Nsg248
Nssg72
(dp1041
g242
Nsg243
Nsg244
Nsg245
Nsg246
Nsg247
Nsg248
Nsssg301
(dp1042
Vtx B-tx A
p1043
(dp1044
g242
F0.4056080497070301
sg243
F-1.0800676745370725
sg244
F-0.33722981241502126
sg245
F1.5002144277232543
sg246
F0.7137447936387731
sg247
F0.3395725444525788
sg248
NssVtx A-tx B
p1045
(dp1046
g242
F1.0800676745370728
sg243
F-0.40560804970703024
sg244
F0.33722981241502126
sg245
F2.944878837642827
sg246
F1.40106100795753
sg247
F0.6665713790778853
sg307
F95.0
sg308
F0.3790058735678114
sg248
F0.3790058735678114
ssssg151
I2
sbssg25
(dp1047
g27
(ima_dataset
MetaAnalyticUnit
p1048
(dp1049
g78
(dp1050
g313
(dp1051
Vtx B-tx A
p1052
(dp1053
g317
Nsg318
Nsg319
Nsg320
Nsg321
Nsg322
Nsg323
NssVtx A-tx B
p1054
(dp1055
g317
Nsg318
Nsg319
Nsg320
Nsg321
Nsg322
Nsg323
Nsssg326
(dp1056
g65
(dp1057
g317
Nsg318
Nsg319
Nsg320
Nsg321
Nsg322
Nsg323
Nssg72
(dp1058
g317
Nsg318
Nsg319
Nsg320
Nsg321
Nsg322
Nsg323
Nsssg330
(dp1059
g65
(dp1060
g317
Nsg318
Nsg319
Nsg320
Nsg321
Nsg322
Nsg323
Nssg72
(dp1061
g317
Nsg318
Nsg319
Nsg320
Nsg321
Nsg322
Nsg323
Nsssg334
(dp1062
Vtx B-tx A
p1063
(dp1064
g317
Nsg318
Nsg319
Nsg320
Nsg321
Nsg322
Nsg323
NssVtx A-tx B
p1065
(dp1066
g317
Nsg318
Nsg319
Nsg320
Nsg321
Nsg322
Nsg323
Nsssg340
(dp1067
Vtx B-tx A
p1068
(dp1069
g317
Nsg318
Nsg319
Nsg320
Nsg321
Nsg322
Nsg323
NssVtx A-tx B
p1070
(dp1071
g317
Nsg318
Nsg319
Nsg320
Nsg321
Nsg322
Nsg323
Nsssg346
(dp1072
Vtx B-tx A
p1073
(dp1074
g317
Nsg318
Nsg319
Nsg320
Nsg321
Nsg322
Nsg323
NssVtx A-tx B
p1075
(dp1076
g317
Nsg318
Nsg319
Nsg320
Nsg321
Nsg322
Nsg323
Nsssg352
(dp1077
Vtx B-tx A
p1078
(dp1079
g317
Nsg318
Nsg319
Nsg320
Nsg321
Nsg322
Nsg323
NssVtx A-tx B
p1080
(dp1081
g317
Nsg318
Nsg319
Nsg320
Nsg321
Nsg322
Nsg323
Nsssg358
(dp1082
g65
(dp1083
g317
Nsg318
Nsg319
Nsg320
Nsg321
Nsg322
Nsg323
Nssg72
(dp1084
g317
Nsg318
Nsg319
Nsg320
Nsg321
Nsg322
Nsg323
Nsssg362
(dp1085
g65
(dp1086
g317
Nsg318
Nsg319
Nsg320
Nsg321
Nsg322
Nsg323
Nssg72
(dp1087
g317
Nsg318
Nsg319
Nsg320
Nsg321
Nsg322
Nsg323
Nsssg366
(dp1088
g65
(dp1089
g317
Nsg318
Nsg319
Nsg320
Nsg321
Nsg322
Nsg323
Nssg72
(dp1090
g317
Nsg318
Nsg319
Nsg320
Nsg321
Nsg322
Nsg323
Nsssg370
(dp1091
Vtx B-tx A
p1092
(dp1093
g317
Nsg318
Nsg319
Nsg320
Nsg321
Nsg322
Nsg323
NssVtx A-tx B
p1094
(dp1095
g317
Nsg318
Nsg319
Nsg320
Nsg321
Nsg322
Nsg149
F95.0
sg150
Nsg323
Nssssg63
(dp1096
g65
(ima_dataset
TreatmentGroup
p1097
(dp1098
g68
(lp1099
g33
ag33
asg70
I0
sg43
g65
sbsg72
(ima_dataset
TreatmentGroup
p1100
(dp1101
g68
(lp1102
g33
ag33
asg70
I1
sg43
g72
sbssg77
g55
sg36
I00
sg151
I2
sbsssg383
I00
sg384
I1993
sg385
Nsg70
I3
sba(ima_dataset
Study
p1103
(dp1104
g42
I00
sg43
VSturm
p1105
sg45
(dp1106
sg32
g33
sg47
(lp1107
g49
ag53
ag55
asg58
(dp1108
g7
(dp1109
g12
(ima_dataset
MetaAnalyticUnit
p1110
(dp1111
g36
I00
sg63
(dp1112
g65
(ima_dataset
TreatmentGroup
p1113
(dp1114
g68
(lp1115
F1.0
aF36.0
asg70
I0
sg43
g71
sbsg72
(ima_dataset
TreatmentGroup
p1116
(dp1117
g68
(lp1118
F0.0
aF36.0
asg70
I1
sg43
g76
sbssg77
g53
sg78
(dp1119
g80
(dp1120
Vtx B-tx A
p1121
(dp1122
g84
Nsg85
Nsg86
Nsg87
Nsg88
Nsg89
Nsg90
NssVtx A-tx B
p1123
(dp1124
g84
Nsg85
Nsg86
Nsg87
Nsg88
Nsg89
Nsg90
Nsssg93
(dp1125
g65
(dp1126
g84
Nsg85
Nsg86
Nsg87
Nsg88
Nsg89
Nsg90
Nssg72
(dp1127
g84
Nsg85
Nsg86
Nsg87
Nsg88
Nsg89
Nsg90
Nsssg97
(dp1128
g65
(dp1129
g84
Nsg85
Nsg86
Nsg87
Nsg88
Nsg89
Nsg90
Nssg72
(dp1130
g84
Nsg85
Nsg86
Nsg87
Nsg88
Nsg89
Nsg90
Nsssg101
(dp1131
Vtx B-tx A
p1132
(dp1133
g84
Nsg85
Nsg86
Nsg87
Nsg88
Nsg89
Nsg90
NssVtx A-tx B
p1134
(dp1135
g84
F4.266615408265285
sg85
F-2.069390830929067
sg86
F1.0986122886681091
sg87
F71.27997327732771
sg88
F2.9999999999999982
sg89
F0.1262626735981487
sg90
Nsssg107
(dp1136
Vtx B-tx A
p1137
(dp1138
g84
Nsg85
Nsg86
Nsg87
Nsg88
Nsg89
Nsg90
NssVtx A-tx B
p1139
(dp1140
g84
Nsg85
Nsg86
Nsg87
Nsg88
Nsg89
Nsg90
Nsssg113
(dp1141
Vtx B-tx A
p1142
(dp1143
g84
Nsg85
Nsg86
Nsg87
Nsg88
Nsg89
Nsg90
NssVtx A-tx B
p1144
(dp1145
g84
Nsg85
Nsg86
Nsg87
Nsg88
Nsg89
Nsg90
Nsssg119
(dp1146
Vtx B-tx A
p1147
(dp1148
g84
Nsg85
Nsg86
Nsg87
Nsg88
Nsg89
Nsg90
NssVtx A-tx B
p1149
(dp1150
g84
Nsg85
Nsg86
Nsg87
Nsg88
Nsg89
Nsg90
Nsssg125
(dp1151
Vtx B-tx A
p1152
(dp1153
g84
Nsg85
Nsg86
Nsg87
Nsg88
Nsg89
Nsg90
NssVtx A-tx B
p1154
(dp1155
g84
Nsg85
Nsg86
Nsg87
Nsg88
Nsg89
Nsg90
Nsssg131
(dp1156
g65
(dp1157
g84
Nsg85
Nsg86
Nsg87
Nsg88
Nsg89
Nsg90
Nssg72
(dp1158
g84
Nsg85
Nsg86
Nsg87
Nsg88
Nsg89
Nsg90
Nsssg135
(dp1159
g65
(dp1160
g84
Nsg85
Nsg86
Nsg87
Nsg88
Nsg89
Nsg90
Nssg72
(dp1161
g84
Nsg85
Nsg86
Nsg87
Nsg88
Nsg89
Nsg90
Nsssg139
(dp1162
g65
(dp1163
g84
Nsg85
Nsg86
Nsg87
Nsg88
Nsg89
Nsg90
Nssg72
(dp1164
g84
Nsg85
Nsg86
Nsg87
Nsg88
Nsg89
Nsg90
Nsssg143
(dp1165
Vtx B-tx A
p1166
(dp1167
g84
F2.107390103894923
sg85
F-4.360173809445294
sg86
F-1.1263918527751855
sg87
F8.226742299086954
sg88
F0.3242009132420091
sg89
F0.012776166838071238
sg90
NssVtx A-tx B
p1168
(dp1169
g84
F4.360173809445294
sg85
F-2.107390103894923
sg86
F1.1263918527751855
sg87
F78.27073743470865
sg88
F3.0845070422683722
sg89
F0.12155479819951433
sg149
F95.0
sg150
F1.649919071053228
sg90
F1.649919071053228
ssssg151
I2
sbssg18
(dp1170
N(ima_dataset
MetaAnalyticUnit
p1171
(dp1172
g78
(dp1173
g156
(dp1174
S'tx B-tx A'
p1175
(dp1176
g160
Nsg161
Nsg162
Nsg163
Nsg164
Nsg165
Nsg166
NssS'tx A-tx B'
p1177
(dp1178
g160
Nsg161
Nsg162
Nsg163
Nsg164
Nsg165
Nsg166
Nsssg169
(dp1179
g171
(dp1180
g160
Nsg161
Nsg162
Nsg163
Nsg164
Nsg165
Nsg166
Nssg173
(dp1181
g160
Nsg161
Nsg162
Nsg163
Nsg164
Nsg165
Nsg166
Nsssg175
(dp1182
g171
(dp1183
g160
Nsg161
Nsg162
Nsg163
Nsg164
Nsg165
Nsg166
Nssg173
(dp1184
g160
Nsg161
Nsg162
Nsg163
Nsg164
Nsg165
Nsg166
Nsssg179
(dp1185
S'tx B-tx A'
p1186
(dp1187
g160
Nsg161
Nsg162
Nsg163
Nsg164
Nsg165
Nsg166
NssS'tx A-tx B'
p1188
(dp1189
g160
Nsg161
Nsg162
Nsg163
Nsg164
Nsg165
Nsg166
Nsssg185
(dp1190
S'tx B-tx A'
p1191
(dp1192
g160
Nsg161
Nsg162
Nsg163
Nsg164
Nsg165
Nsg166
NssS'tx A-tx B'
p1193
(dp1194
g160
Nsg161
Nsg162
Nsg163
Nsg164
Nsg165
Nsg166
Nsssg191
(dp1195
S'tx B-tx A'
p1196
(dp1197
g160
Nsg161
Nsg162
Nsg163
Nsg164
Nsg165
Nsg166
NssS'tx A-tx B'
p1198
(dp1199
g160
Nsg161
Nsg162
Nsg163
Nsg164
Nsg165
Nsg166
Nsssg197
(dp1200
S'tx B-tx A'
p1201
(dp1202
g160
Nsg161
Nsg162
Nsg163
Nsg164
Nsg165
Nsg166
NssS'tx A-tx B'
p1203
(dp1204
g160
Nsg161
Nsg162
Nsg163
Nsg164
Nsg165
Nsg166
Nsssg203
(dp1205
g171
(dp1206
g160
Nsg161
Nsg162
Nsg163
Nsg164
Nsg165
Nsg166
Nssg173
(dp1207
g160
Nsg161
Nsg162
Nsg163
Nsg164
Nsg165
Nsg166
Nsssg207
(dp1208
g171
(dp1209
g160
Nsg161
Nsg162
Nsg163
Nsg164
Nsg165
Nsg166
Nssg173
(dp1210
g160
Nsg161
Nsg162
Nsg163
Nsg164
Nsg165
Nsg166
Nsssg211
(dp1211
g171
(dp1212
g160
Nsg161
Nsg162
Nsg163
Nsg164
Nsg165
Nsg166
Nssg173
(dp1213
g160
Nsg161
Nsg162
Nsg163
Nsg164
Nsg165
Nsg166
Nsssg215
(dp1214
S'tx B-tx A'
p1215
(dp1216
g160
Nsg161
Nsg162
Nsg163
Nsg164
Nsg165
Nsg166
NssS'tx A-tx B'
p1217
(dp1218
g160
Nsg161
Nsg162
Nsg163
Nsg164
Nsg165
Nsg166
Nssssg63
(dp1219
g171
(ima_dataset
TreatmentGroup
p1220
(dp1221
g68
(lp1222
g33
ag33
asg70
I0
sg43
g171
sbsg173
(ima_dataset
TreatmentGroup
p1223
(dp1224
g68
(lp1225
g33
ag33
asg70
I1
sg43
g173
sbssg77
g49
sg36
I00
sg151
I2
sbsg20
(ima_dataset
MetaAnalyticUnit
p1226
(dp1227
g36
I00
sg63
(dp1228
g65
(ima_dataset
TreatmentGroup
p1229
(dp1230
g68
(lp1231
F0.0
aF36.0
asg70
I0
sg43
g71
sbsg72
(ima_dataset
TreatmentGroup
p1232
(dp1233
g68
(lp1234
F2.0
aF36.0
asg70
I1
sg43
g76
sbssg77
g49
sg78
(dp1235
g238
(dp1236
Vtx B-tx A
p1237
(dp1238
g242
Nsg243
Nsg244
Nsg245
Nsg246
Nsg247
Nsg248
NssVtx A-tx B
p1239
(dp1240
g242
Nsg243
Nsg244
Nsg245
Nsg246
Nsg247
Nsg248
Nsssg251
(dp1241
g65
(dp1242
g242
Nsg243
Nsg244
Nsg245
Nsg246
Nsg247
Nsg248
Nssg72
(dp1243
g242
Nsg243
Nsg244
Nsg245
Nsg246
Nsg247
Nsg248
Nsssg255
(dp1244
g65
(dp1245
g242
Nsg243
Nsg244
Nsg245
Nsg246
Nsg247
Nsg248
Nssg72
(dp1246
g242
Nsg243
Nsg244
Nsg245
Nsg246
Nsg247
Nsg248
Nsssg259
(dp1247
Vtx B-tx A
p1248
(dp1249
g242
F4.611413053391412
sg243
F-1.3925372285232118
sg244
F1.6094379124341
sg245
F100.62623947143506
sg246
F4.999999999999998
sg247
F0.2484441447014104
sg248
NssVtx A-tx B
p1250
(dp1251
g242
F1.3925372285232118
sg243
F-4.611413053391412
sg244
F-1.6094379124341
sg245
F4.025049578857405
sg246
F0.20000000000000007
sg247
F0.009937765788056422
sg248
Nsssg265
(dp1252
Vtx B-tx A
p1253
(dp1254
g242
Nsg243
Nsg244
Nsg245
Nsg246
Nsg247
Nsg248
NssVtx A-tx B
p1255
(dp1256
g242
Nsg243
Nsg244
Nsg245
Nsg246
Nsg247
Nsg248
Nsssg271
(dp1257
Vtx B-tx A
p1258
(dp1259
g242
Nsg243
Nsg244
Nsg245
Nsg246
Nsg247
Nsg248
NssVtx A-tx B
p1260
(dp1261
g242
Nsg243
Nsg244
Nsg245
Nsg246
Nsg247
Nsg248
Nsssg277
(dp1262
Vtx B-tx A
p1263
(dp1264
g242
Nsg243
Nsg244
Nsg245
Nsg246
Nsg247
Nsg248
NssVtx A-tx B
p1265
(dp1266
g242
Nsg243
Nsg244
Nsg245
Nsg246
Nsg247
Nsg248
Nsssg283
(dp1267
Vtx B-tx A
p1268
(dp1269
g242
Nsg243
Nsg244
Nsg245
Nsg246
Nsg247
Nsg248
NssVtx A-tx B
p1270
(dp1271
g242
Nsg243
Nsg244
Nsg245
Nsg246
Nsg247
Nsg248
Nsssg289
(dp1272
g65
(dp1273
g242
Nsg243
Nsg244
Nsg245
Nsg246
Nsg247
Nsg248
Nssg72
(dp1274
g242
Nsg243
Nsg244
Nsg245
Nsg246
Nsg247
Nsg248
Nsssg293
(dp1275
g65
(dp1276
g242
Nsg243
Nsg244
Nsg245
Nsg246
Nsg247
Nsg248
Nssg72
(dp1277
g242
Nsg243
Nsg244
Nsg245
Nsg246
Nsg247
Nsg248
Nsssg297
(dp1278
g65
(dp1279
g242
Nsg243
Nsg244
Nsg245
Nsg246
Nsg247
Nsg248
Nssg72
(dp1280
g242
Nsg243
Nsg244
Nsg245
Nsg246
Nsg247
Nsg248
Nsssg301
(dp1281
Vtx B-tx A
p1282
(dp1283
g242
F4.737613312815473
sg243
F-1.4060316148450087
sg244
F1.6657908489852318
sg245
F114.16140870278059
sg246
F5.289855072463766
sg247
F0.24511406267351962
sg248
NssVtx A-tx B
p1284
(dp1285
g242
F1.4060316148450092
sg243
F-4.737613312815473
sg244
F-1.6657908489852318
sg245
F4.079733284568598
sg246
F0.18904109588950965
sg247
F0.008759527508976125
sg307
F95.0
sg308
F1.5672851583296352
sg248
F1.5672851583296352
ssssg151
I2
sbssg25
(dp1286
g27
(ima_dataset
MetaAnalyticUnit
p1287
(dp1288
g78
(dp1289
g313
(dp1290
Vtx B-tx A
p1291
(dp1292
g317
Nsg318
Nsg319
Nsg320
Nsg321
Nsg322
Nsg323
NssVtx A-tx B
p1293
(dp1294
g317
Nsg318
Nsg319
Nsg320
Nsg321
Nsg322
Nsg323
Nsssg326
(dp1295
g65
(dp1296
g317
Nsg318
Nsg319
Nsg320
Nsg321
Nsg322
Nsg323
Nssg72
(dp1297
g317
Nsg318
Nsg319
Nsg320
Nsg321
Nsg322
Nsg323
Nsssg330
(dp1298
g65
(dp1299
g317
Nsg318
Nsg319
Nsg320
Nsg321
Nsg322
Nsg323
Nssg72
(dp1300
g317
Nsg318
Nsg319
Nsg320
Nsg321
Nsg322
Nsg323
Nsssg334
(dp1301
Vtx B-tx A
p1302
(dp1303
g317
Nsg318
Nsg319
Nsg320
Nsg321
Nsg322
Nsg323
NssVtx A-tx B
p1304
(dp1305
g317
Nsg318
Nsg319
Nsg320
Nsg321
Nsg322
Nsg323
Nsssg340
(dp1306
Vtx B-tx A
p1307
(dp1308
g317
Nsg318
Nsg319
Nsg320
Nsg321
Nsg322
Nsg323
NssVtx A-tx B
p1309
(dp1310
g317
Nsg318
Nsg319
Nsg320
Nsg321
Nsg322
Nsg323
Nsssg346
(dp1311
Vtx B-tx A
p1312
(dp1313
g317
Nsg318
Nsg319
Nsg320
Nsg321
Nsg322
Nsg323
NssVtx A-tx B
p1314
(dp1315
g317
Nsg318
Nsg319
Nsg320
Nsg321
Nsg322
Nsg323
Nsssg352
(dp1316
Vtx B-tx A
p1317
(dp1318
g317
Nsg318
Nsg319
Nsg320
Nsg321
Nsg322
Nsg323
NssVtx A-tx B
p1319
(dp1320
g317
Nsg318
Nsg319
Nsg320
Nsg321
Nsg322
Nsg323
Nsssg358
(dp1321
g65
(dp1322
g317
Nsg318
Nsg319
Nsg320
Nsg321
Nsg322
Nsg323
Nssg72
(dp1323
g317
Nsg318
Nsg319
Nsg320
Nsg321
Nsg322
Nsg323
Nsssg362
(dp1324
g65
(dp1325
g317
Nsg318
Nsg319
Nsg320
Nsg321
Nsg322
Nsg323
Nssg72
(dp1326
g317
Nsg318
Nsg319
Nsg320
Nsg321
Nsg322
Nsg323
Nsssg366
(dp1327
g65
(dp1328
g317
Nsg318
Nsg319
Nsg320
Nsg321
Nsg322
Nsg323
Nssg72
(dp1329
g317
Nsg318
Nsg319
Nsg320
Nsg321
Nsg322
Nsg323
Nsssg370
(dp1330
Vtx B-tx A
p1331
(dp1332
g317
Nsg318
Nsg319
Nsg320
Nsg321
Nsg322
Nsg323
NssVtx A-tx B
p1333
(dp1334
g317
Nsg318
Nsg319
Nsg320
Nsg321
Nsg322
Nsg149
F95.0
sg150
Nsg323
Nssssg63
(dp1335
g65
(ima_dataset
TreatmentGroup
p1336
(dp1337
g68
(lp1338
g33
ag33
asg70
I0
sg43
g65
sbsg72
(ima_dataset
TreatmentGroup
p1339
(dp1340
g68
(lp1341
g33
ag33
asg70
I1
sg43
g72
sbssg77
g55
sg36
I00
sg151
I2
sbsssg383
I00
sg384
I1989
sg385
Nsg70
I4
sba(ima_dataset
Study
p1342
(dp1343
g42
I00
sg43
VMarik
p1344
sg45
(dp1345
sg32
g33
sg47
(lp1346
g49
ag53
ag55
asg58
(dp1347
g7
(dp1348
g12
(ima_dataset
MetaAnalyticUnit
p1349
(dp1350
g36
I00
sg63
(dp1351
g65
(ima_dataset
TreatmentGroup
p1352
(dp1353
g68
(lp1354
F1.0
aF155.0
asg70
I0
sg43
g71
sbsg72
(ima_dataset
TreatmentGroup
p1355
(dp1356
g68
(lp1357
F4.0
aF145.0
asg70
I1
sg43
g76
sbssg77
g53
sg78
(dp1358
g80
(dp1359
Vtx B-tx A
p1360
(dp1361
g84
Nsg85
Nsg86
Nsg87
Nsg88
Nsg89
Nsg90
NssVtx A-tx B
p1362
(dp1363
g84
Nsg85
Nsg86
Nsg87
Nsg88
Nsg89
Nsg90
Nsssg93
(dp1364
g65
(dp1365
g84
Nsg85
Nsg86
Nsg87
Nsg88
Nsg89
Nsg90
Nssg72
(dp1366
g84
Nsg85
Nsg86
Nsg87
Nsg88
Nsg89
Nsg90
Nsssg97
(dp1367
g65
(dp1368
g84
Nsg85
Nsg86
Nsg87
Nsg88
Nsg89
Nsg90
Nssg72
(dp1369
g84
Nsg85
Nsg86
Nsg87
Nsg88
Nsg89
Nsg90
Nsssg101
(dp1370
Vtx B-tx A
p1371
(dp1372
g84
Nsg85
Nsg86
Nsg87
Nsg88
Nsg89
Nsg90
NssVtx A-tx B
p1373
(dp1374
g84
F0.7265892461427415
sg85
F-3.6325607173798673
sg86
F-1.452985735618563
sg87
F2.068015074733827
sg88
F0.23387096774193547
sg89
F0.02644837081740773
sg90
Nsssg107
(dp1375
Vtx B-tx A
p1376
(dp1377
g84
Nsg85
Nsg86
Nsg87
Nsg88
Nsg89
Nsg90
NssVtx A-tx B
p1378
(dp1379
g84
Nsg85
Nsg86
Nsg87
Nsg88
Nsg89
Nsg90
Nsssg113
(dp1380
Vtx B-tx A
p1381
(dp1382
g84
Nsg85
Nsg86
Nsg87
Nsg88
Nsg89
Nsg90
NssVtx A-tx B
p1383
(dp1384
g84
Nsg85
Nsg86
Nsg87
Nsg88
Nsg89
Nsg90
Nsssg119
(dp1385
Vtx B-tx A
p1386
(dp1387
g84
Nsg85
Nsg86
Nsg87
Nsg88
Nsg89
Nsg90
NssVtx A-tx B
p1388
(dp1389
g84
Nsg85
Nsg86
Nsg87
Nsg88
Nsg89
Nsg90
Nsssg125
(dp1390
Vtx B-tx A
p1391
(dp1392
g84
Nsg85
Nsg86
Nsg87
Nsg88
Nsg89
Nsg90
NssVtx A-tx B
p1393
(dp1394
g84
Nsg85
Nsg86
Nsg87
Nsg88
Nsg89
Nsg90
Nsssg131
(dp1395
g65
(dp1396
g84
Nsg85
Nsg86
Nsg87
Nsg88
Nsg89
Nsg90
Nssg72
(dp1397
g84
Nsg85
Nsg86
Nsg87
Nsg88
Nsg89
Nsg90
Nsssg135
(dp1398
g65
(dp1399
g84
Nsg85
Nsg86
Nsg87
Nsg88
Nsg89
Nsg90
Nssg72
(dp1400
g84
Nsg85
Nsg86
Nsg87
Nsg88
Nsg89
Nsg90
Nsssg139
(dp1401
g65
(dp1402
g84
Nsg85
Nsg86
Nsg87
Nsg88
Nsg89
Nsg90
Nssg72
(dp1403
g84
Nsg85
Nsg86
Nsg87
Nsg88
Nsg89
Nsg90
Nsssg143
(dp1404
Vtx B-tx A
p1405
(dp1406
g84
F3.677669419776625
sg85
F-0.7286952734659211
sg86
F1.4744870731553519
sg87
F39.55410255878158
sg88
F4.368794326241137
sg89
F0.4825381598945998
sg90
NssVtx A-tx B
p1407
(dp1408
g84
F0.7286952734659211
sg85
F-3.677669419776625
sg86
F-1.4744870731553519
sg87
F2.0723749603938217
sg88
F0.2288961038950399
sg89
F0.025281827555321705
sg149
F95.0
sg150
F1.124093281305011
sg90
F1.124093281305011
ssssg151
I2
sbssg18
(dp1409
N(ima_dataset
MetaAnalyticUnit
p1410
(dp1411
g78
(dp1412
g156
(dp1413
S'tx B-tx A'
p1414
(dp1415
g160
Nsg161
Nsg162
Nsg163
Nsg164
Nsg165
Nsg166
NssS'tx A-tx B'
p1416
(dp1417
g160
Nsg161
Nsg162
Nsg163
Nsg164
Nsg165
Nsg166
Nsssg169
(dp1418
g171
(dp1419
g160
Nsg161
Nsg162
Nsg163
Nsg164
Nsg165
Nsg166
Nssg173
(dp1420
g160
Nsg161
Nsg162
Nsg163
Nsg164
Nsg165
Nsg166
Nsssg175
(dp1421
g171
(dp1422
g160
Nsg161
Nsg162
Nsg163
Nsg164
Nsg165
Nsg166
Nssg173
(dp1423
g160
Nsg161
Nsg162
Nsg163
Nsg164
Nsg165
Nsg166
Nsssg179
(dp1424
S'tx B-tx A'
p1425
(dp1426
g160
Nsg161
Nsg162
Nsg163
Nsg164
Nsg165
Nsg166
NssS'tx A-tx B'
p1427
(dp1428
g160
Nsg161
Nsg162
Nsg163
Nsg164
Nsg165
Nsg166
Nsssg185
(dp1429
S'tx B-tx A'
p1430
(dp1431
g160
Nsg161
Nsg162
Nsg163
Nsg164
Nsg165
Nsg166
NssS'tx A-tx B'
p1432
(dp1433
g160
Nsg161
Nsg162
Nsg163
Nsg164
Nsg165
Nsg166
Nsssg191
(dp1434
S'tx B-tx A'
p1435
(dp1436
g160
Nsg161
Nsg162
Nsg163
Nsg164
Nsg165
Nsg166
NssS'tx A-tx B'
p1437
(dp1438
g160
Nsg161
Nsg162
Nsg163
Nsg164
Nsg165
Nsg166
Nsssg197
(dp1439
S'tx B-tx A'
p1440
(dp1441
g160
Nsg161
Nsg162
Nsg163
Nsg164
Nsg165
Nsg166
NssS'tx A-tx B'
p1442
(dp1443
g160
Nsg161
Nsg162
Nsg163
Nsg164
Nsg165
Nsg166
Nsssg203
(dp1444
g171
(dp1445
g160
Nsg161
Nsg162
Nsg163
Nsg164
Nsg165
Nsg166
Nssg173
(dp1446
g160
Nsg161
Nsg162
Nsg163
Nsg164
Nsg165
Nsg166
Nsssg207
(dp1447
g171
(dp1448
g160
Nsg161
Nsg162
Nsg163
Nsg164
Nsg165
Nsg166
Nssg173
(dp1449
g160
Nsg161
Nsg162
Nsg163
Nsg164
Nsg165
Nsg166
Nsssg211
(dp1450
g171
(dp1451
g160
Nsg161
Nsg162
Nsg163
Nsg164
Nsg165
Nsg166
Nssg173
(dp1452
g160
Nsg161
Nsg162
Nsg163
Nsg164
Nsg165
Nsg166
Nsssg215
(dp1453
S'tx B-tx A'
p1454
(dp1455
g160
Nsg161
Nsg162
Nsg163
Nsg164
Nsg165
Nsg166
NssS'tx A-tx B'
p1456
(dp1457
g160
Nsg161
Nsg162
Nsg163
Nsg164
Nsg165
Nsg166
Nssssg63
(dp1458
g171
(ima_dataset
TreatmentGroup
p1459
(dp1460
g68
(lp1461
g33
ag33
asg70
I0
sg43
g171
sbsg173
(ima_dataset
TreatmentGroup
p1462
(dp1463
g68
(lp1464
g33
ag33
asg70
I1
sg43
g173
sbssg77
g49
sg36
I00
sg151
I2
sbsg20
(ima_dataset
MetaAnalyticUnit
p1465
(dp1466
g36
I00
sg63
(dp1467
g65
(ima_dataset
TreatmentGroup
p1468
(dp1469
g68
(lp1470
F26.0
aF155.0
asg70
I0
sg43
g71
sbsg72
(ima_dataset
TreatmentGroup
p1471
(dp1472
g68
(lp1473
F49.0
aF145.0
asg70
I1
sg43
g76
sbssg77
g49
sg78
(dp1474
g238
(dp1475
Vtx B-tx A
p1476
(dp1477
g242
Nsg243
Nsg244
Nsg245
Nsg246
Nsg247
Nsg248
NssVtx A-tx B
p1478
(dp1479
g242
Nsg243
Nsg244
Nsg245
Nsg246
Nsg247
Nsg248
Nsssg251
(dp1480
g65
(dp1481
g242
Nsg243
Nsg244
Nsg245
Nsg246
Nsg247
Nsg248
Nssg72
(dp1482
g242
Nsg243
Nsg244
Nsg245
Nsg246
Nsg247
Nsg248
Nsssg255
(dp1483
g65
(dp1484
g242
Nsg243
Nsg244
Nsg245
Nsg246
Nsg247
Nsg248
Nssg72
(dp1485
g242
Nsg243
Nsg244
Nsg245
Nsg246
Nsg247
Nsg248
Nsssg259
(dp1486
Vtx B-tx A
p1487
(dp1488
g242
F1.1185886753844045
sg243
F0.2822415937912289
sg244
F0.7004151345878167
sg245
F3.060531750022502
sg246
F2.0145888594164454
sg247
F1.3260990585884347
sg248
NssVtx A-tx B
p1489
(dp1490
g242
F-0.2822415937912289
sg243
F-1.1185886753844045
sg244
F-0.7004151345878167
sg245
F0.7540914787048031
sg246
F0.4963791968400264
sg247
F0.3267406064297969
sg248
Nsssg265
(dp1491
Vtx B-tx A
p1492
(dp1493
g242
Nsg243
Nsg244
Nsg245
Nsg246
Nsg247
Nsg248
NssVtx A-tx B
p1494
(dp1495
g242
Nsg243
Nsg244
Nsg245
Nsg246
Nsg247
Nsg248
Nsssg271
(dp1496
Vtx B-tx A
p1497
(dp1498
g242
Nsg243
Nsg244
Nsg245
Nsg246
Nsg247
Nsg248
NssVtx A-tx B
p1499
(dp1500
g242
Nsg243
Nsg244
Nsg245
Nsg246
Nsg247
Nsg248
Nsssg277
(dp1501
Vtx B-tx A
p1502
(dp1503
g242
Nsg243
Nsg244
Nsg245
Nsg246
Nsg247
Nsg248
NssVtx A-tx B
p1504
(dp1505
g242
Nsg243
Nsg244
Nsg245
Nsg246
Nsg247
Nsg248
Nsssg283
(dp1506
Vtx B-tx A
p1507
(dp1508
g242
Nsg243
Nsg244
Nsg245
Nsg246
Nsg247
Nsg248
NssVtx A-tx B
p1509
(dp1510
g242
Nsg243
Nsg244
Nsg245
Nsg246
Nsg247
Nsg248
Nsssg289
(dp1511
g65
(dp1512
g242
Nsg243
Nsg244
Nsg245
Nsg246
Nsg247
Nsg248
Nssg72
(dp1513
g242
Nsg243
Nsg244
Nsg245
Nsg246
Nsg247
Nsg248
Nsssg293
(dp1514
g65
(dp1515
g242
Nsg243
Nsg244
Nsg245
Nsg246
Nsg247
Nsg248
Nssg72
(dp1516
g242
Nsg243
Nsg244
Nsg245
Nsg246
Nsg247
Nsg248
Nsssg297
(dp1517
g65
(dp1518
g242
Nsg243
Nsg244
Nsg245
Nsg246
Nsg247
Nsg248
Nssg72
(dp1519
g242
Nsg243
Nsg244
Nsg245
Nsg246
Nsg247
Nsg248
Nsssg301
(dp1520
Vtx B-tx A
p1521
(dp1522
g242
F1.4731911729433602
sg243
F0.3851847730226008
sg244
F0.9291879729829805
sg245
F4.363136471546958
sg246
F2.5324519230769234
sg247
F1.4698858916100221
sg248
NssVtx A-tx B
p1523
(dp1524
g242
F-0.3851847730226008
sg243
F-1.4731911729433602
sg244
F-0.9291879729829805
sg245
F0.6803249188984748
sg246
F0.3948742287612642
sg247
F0.22919292268866584
sg307
F95.0
sg308
F0.27755775322985915
sg248
F0.27755775322985915
ssssg151
I2
sbssg25
(dp1525
g27
(ima_dataset
MetaAnalyticUnit
p1526
(dp1527
g78
(dp1528
g313
(dp1529
Vtx B-tx A
p1530
(dp1531
g317
Nsg318
Nsg319
Nsg320
Nsg321
Nsg322
Nsg323
NssVtx A-tx B
p1532
(dp1533
g317
Nsg318
Nsg319
Nsg320
Nsg321
Nsg322
Nsg323
Nsssg326
(dp1534
g65
(dp1535
g317
Nsg318
Nsg319
Nsg320
Nsg321
Nsg322
Nsg323
Nssg72
(dp1536
g317
Nsg318
Nsg319
Nsg320
Nsg321
Nsg322
Nsg323
Nsssg330
(dp1537
g65
(dp1538
g317
Nsg318
Nsg319
Nsg320
Nsg321
Nsg322
Nsg323
Nssg72
(dp1539
g317
Nsg318
Nsg319
Nsg320
Nsg321
Nsg322
Nsg323
Nsssg334
(dp1540
Vtx B-tx A
p1541
(dp1542
g317
Nsg318
Nsg319
Nsg320
Nsg321
Nsg322
Nsg323
NssVtx A-tx B
p1543
(dp1544
g317
Nsg318
Nsg319
Nsg320
Nsg321
Nsg322
Nsg323
Nsssg340
(dp1545
Vtx B-tx A
p1546
(dp1547
g317
Nsg318
Nsg319
Nsg320
Nsg321
Nsg322
Nsg323
NssVtx A-tx B
p1548
(dp1549
g317
Nsg318
Nsg319
Nsg320
Nsg321
Nsg322
Nsg323
Nsssg346
(dp1550
Vtx B-tx A
p1551
(dp1552
g317
Nsg318
Nsg319
Nsg320
Nsg321
Nsg322
Nsg323
NssVtx A-tx B
p1553
(dp1554
g317
Nsg318
Nsg319
Nsg320
Nsg321
Nsg322
Nsg323
Nsssg352
(dp1555
Vtx B-tx A
p1556
(dp1557
g317
Nsg318
Nsg319
Nsg320
Nsg321
Nsg322
Nsg323
NssVtx A-tx B
p1558
(dp1559
g317
Nsg318
Nsg319
Nsg320
Nsg321
Nsg322
Nsg323
Nsssg358
(dp1560
g65
(dp1561
g317
Nsg318
Nsg319
Nsg320
Nsg321
Nsg322
Nsg323
Nssg72
(dp1562
g317
Nsg318
Nsg319
Nsg320
Nsg321
Nsg322
Nsg323
Nsssg362
(dp1563
g65
(dp1564
g317
Nsg318
Nsg319
Nsg320
Nsg321
Nsg322
Nsg323
Nssg72
(dp1565
g317
Nsg318
Nsg319
Nsg320
Nsg321
Nsg322
Nsg323
Nsssg366
(dp1566
g65
(dp1567
g317
Nsg318
Nsg319
Nsg320
Nsg321
Nsg322
Nsg323
Nssg72
(dp1568
g317
Nsg318
Nsg319
Nsg320
Nsg321
Nsg322
Nsg323
Nsssg370
(dp1569
Vtx B-tx A
p1570
(dp1571
g317
Nsg318
Nsg319
Nsg320
Nsg321
Nsg322
Nsg323
NssVtx A-tx B
p1572
(dp1573
g317
Nsg318
Nsg319
Nsg320
Nsg321
Nsg322
Nsg149
F95.0
sg150
Nsg323
Nssssg63
(dp1574
g65
(ima_dataset
TreatmentGroup
p1575
(dp1576
g68
(lp1577
g33
ag33
asg70
I0
sg43
g65
sbsg72
(ima_dataset
TreatmentGroup
p1578
(dp1579
g68
(lp1580
g33
ag33
asg70
I1
sg43
g72
sbssg77
g55
sg36
I00
sg151
I2
sbsssg383
I00
sg384
I1991
sg385
Nsg70
I5
sba(ima_dataset
Study
p1581
(dp1582
g42
I00
sg43
VMuijsken
p1583
sg45
(dp1584
sg32
g33
sg47
(lp1585
g49
ag53
ag55
asg58
(dp1586
g7
(dp1587
g12
(ima_dataset
MetaAnalyticUnit
p1588
(dp1589
g36
I00
sg63
(dp1590
g65
(ima_dataset
TreatmentGroup
p1591
(dp1592
g68
(lp1593
F2.0
aF29.0
asg70
I0
sg43
g71
sbsg72
(ima_dataset
TreatmentGroup
p1594
(dp1595
g68
(lp1596
F5.0
aF36.0
asg70
I1
sg43
g76
sbssg77
g53
sg78
(dp1597
g80
(dp1598
Vtx B-tx A
p1599
(dp1600
g84
Nsg85
Nsg86
Nsg87
Nsg88
Nsg89
Nsg90
NssVtx A-tx B
p1601
(dp1602
g84
Nsg85
Nsg86
Nsg87
Nsg88
Nsg89
Nsg90
Nsssg93
(dp1603
g65
(dp1604
g84
Nsg85
Nsg86
Nsg87
Nsg88
Nsg89
Nsg90
Nssg72
(dp1605
g84
Nsg85
Nsg86
Nsg87
Nsg88
Nsg89
Nsg90
Nsssg97
(dp1606
g65
(dp1607
g84
Nsg85
Nsg86
Nsg87
Nsg88
Nsg89
Nsg90
Nssg72
(dp1608
g84
Nsg85
Nsg86
Nsg87
Nsg88
Nsg89
Nsg90
Nsssg101
(dp1609
Vtx B-tx A
p1610
(dp1611
g84
Nsg85
Nsg86
Nsg87
Nsg88
Nsg89
Nsg90
NssVtx A-tx B
p1612
(dp1613
g84
F0.8651320085136736
sg85
F-2.265267255322712
sg86
F-0.7000676234045191
sg87
F2.37531962769512
sg88
F0.496551724137931
sg89
F0.10380228911912949
sg90
Nsssg107
(dp1614
Vtx B-tx A
p1615
(dp1616
g84
Nsg85
Nsg86
Nsg87
Nsg88
Nsg89
Nsg90
NssVtx A-tx B
p1617
(dp1618
g84
Nsg85
Nsg86
Nsg87
Nsg88
Nsg89
Nsg90
Nsssg113
(dp1619
Vtx B-tx A
p1620
(dp1621
g84
Nsg85
Nsg86
Nsg87
Nsg88
Nsg89
Nsg90
NssVtx A-tx B
p1622
(dp1623
g84
Nsg85
Nsg86
Nsg87
Nsg88
Nsg89
Nsg90
Nsssg119
(dp1624
Vtx B-tx A
p1625
(dp1626
g84
Nsg85
Nsg86
Nsg87
Nsg88
Nsg89
Nsg90
NssVtx A-tx B
p1627
(dp1628
g84
Nsg85
Nsg86
Nsg87
Nsg88
Nsg89
Nsg90
Nsssg125
(dp1629
Vtx B-tx A
p1630
(dp1631
g84
Nsg85
Nsg86
Nsg87
Nsg88
Nsg89
Nsg90
NssVtx A-tx B
p1632
(dp1633
g84
Nsg85
Nsg86
Nsg87
Nsg88
Nsg89
Nsg90
Nsssg131
(dp1634
g65
(dp1635
g84
Nsg85
Nsg86
Nsg87
Nsg88
Nsg89
Nsg90
Nssg72
(dp1636
g84
Nsg85
Nsg86
Nsg87
Nsg88
Nsg89
Nsg90
Nsssg135
(dp1637
g65
(dp1638
g84
Nsg85
Nsg86
Nsg87
Nsg88
Nsg89
Nsg90
Nssg72
(dp1639
g84
Nsg85
Nsg86
Nsg87
Nsg88
Nsg89
Nsg90
Nsssg139
(dp1640
g65
(dp1641
g84
Nsg85
Nsg86
Nsg87
Nsg88
Nsg89
Nsg90
Nssg72
(dp1642
g84
Nsg85
Nsg86
Nsg87
Nsg88
Nsg89
Nsg90
Nsssg143
(dp1643
Vtx B-tx A
p1644
(dp1645
g84
F2.497214403893814
sg85
F-0.9409336171071385
sg86
F0.7781403933933377
sg87
F12.148605674415208
sg88
F2.1774193548387095
sg89
F0.390263308719537
sg90
NssVtx A-tx B
p1646
(dp1647
g84
F0.9409336171071385
sg85
F-2.497214403893814
sg86
F-0.7781403933933377
sg87
F2.5623725768145733
sg88
F0.4592592592594144
sg89
F0.08231397304382014
sg149
F95.0
sg150
F0.8770946936067769
sg90
F0.8770946936067769
ssssg151
I2
sbssg18
(dp1648
N(ima_dataset
MetaAnalyticUnit
p1649
(dp1650
g78
(dp1651
g156
(dp1652
S'tx B-tx A'
p1653
(dp1654
g160
Nsg161
Nsg162
Nsg163
Nsg164
Nsg165
Nsg166
NssS'tx A-tx B'
p1655
(dp1656
g160
Nsg161
Nsg162
Nsg163
Nsg164
Nsg165
Nsg166
Nsssg169
(dp1657
g171
(dp1658
g160
Nsg161
Nsg162
Nsg163
Nsg164
Nsg165
Nsg166
Nssg173
(dp1659
g160
Nsg161
Nsg162
Nsg163
Nsg164
Nsg165
Nsg166
Nsssg175
(dp1660
g171
(dp1661
g160
Nsg161
Nsg162
Nsg163
Nsg164
Nsg165
Nsg166
Nssg173
(dp1662
g160
Nsg161
Nsg162
Nsg163
Nsg164
Nsg165
Nsg166
Nsssg179
(dp1663
S'tx B-tx A'
p1664
(dp1665
g160
Nsg161
Nsg162
Nsg163
Nsg164
Nsg165
Nsg166
NssS'tx A-tx B'
p1666
(dp1667
g160
Nsg161
Nsg162
Nsg163
Nsg164
Nsg165
Nsg166
Nsssg185
(dp1668
S'tx B-tx A'
p1669
(dp1670
g160
Nsg161
Nsg162
Nsg163
Nsg164
Nsg165
Nsg166
NssS'tx A-tx B'
p1671
(dp1672
g160
Nsg161
Nsg162
Nsg163
Nsg164
Nsg165
Nsg166
Nsssg191
(dp1673
S'tx B-tx A'
p1674
(dp1675
g160
Nsg161
Nsg162
Nsg163
Nsg164
Nsg165
Nsg166
NssS'tx A-tx B'
p1676
(dp1677
g160
Nsg161
Nsg162
Nsg163
Nsg164
Nsg165
Nsg166
Nsssg197
(dp1678
S'tx B-tx A'
p1679
(dp1680
g160
Nsg161
Nsg162
Nsg163
Nsg164
Nsg165
Nsg166
NssS'tx A-tx B'
p1681
(dp1682
g160
Nsg161
Nsg162
Nsg163
Nsg164
Nsg165
Nsg166
Nsssg203
(dp1683
g171
(dp1684
g160
Nsg161
Nsg162
Nsg163
Nsg164
Nsg165
Nsg166
Nssg173
(dp1685
g160
Nsg161
Nsg162
Nsg163
Nsg164
Nsg165
Nsg166
Nsssg207
(dp1686
g171
(dp1687
g160
Nsg161
Nsg162
Nsg163
Nsg164
Nsg165
Nsg166
Nssg173
(dp1688
g160
Nsg161
Nsg162
Nsg163
Nsg164
Nsg165
Nsg166
Nsssg211
(dp1689
g171
(dp1690
g160
Nsg161
Nsg162
Nsg163
Nsg164
Nsg165
Nsg166
Nssg173
(dp1691
g160
Nsg161
Nsg162
Nsg163
Nsg164
Nsg165
Nsg166
Nsssg215
(dp1692
S'tx B-tx A'
p1693
(dp1694
g160
Nsg161
Nsg162
Nsg163
Nsg164
Nsg165
Nsg166
NssS'tx A-tx B'
p1695
(dp1696
g160
Nsg161
Nsg162
Nsg163
Nsg164
Nsg165
Nsg166
Nssssg63
(dp1697
g171
(ima_dataset
TreatmentGroup
p1698
(dp1699
g68
(lp1700
g33
ag33
asg70
I0
sg43
g171
sbsg173
(ima_dataset
TreatmentGroup
p1701
(dp1702
g68
(lp1703
g33
ag33
asg70
I1
sg43
g173
sbssg77
g49
sg36
I00
sg151
I2
sbsg20
(ima_dataset
MetaAnalyticUnit
p1704
(dp1705
g36
I00
sg63
(dp1706
g65
(ima_dataset
TreatmentGroup
p1707
(dp1708
g68
(lp1709
F8.0
aF32.0
asg70
I0
sg43
g71
sbsg72
(ima_dataset
TreatmentGroup
p1710
(dp1711
g68
(lp1712
F6.0
aF35.0
asg70
I1
sg43
g76
sbssg77
g49
sg78
(dp1713
g238
(dp1714
Vtx B-tx A
p1715
(dp1716
g242
Nsg243
Nsg244
Nsg245
Nsg246
Nsg247
Nsg248
NssVtx A-tx B
p1717
(dp1718
g242
Nsg243
Nsg244
Nsg245
Nsg246
Nsg247
Nsg248
Nsssg251
(dp1719
g65
(dp1720
g242
Nsg243
Nsg244
Nsg245
Nsg246
Nsg247
Nsg248
Nssg72
(dp1721
g242
Nsg243
Nsg244
Nsg245
Nsg246
Nsg247
Nsg248
Nsssg255
(dp1722
g65
(dp1723
g242
Nsg243
Nsg244
Nsg245
Nsg246
Nsg247
Nsg248
Nssg72
(dp1724
g242
Nsg243
Nsg244
Nsg245
Nsg246
Nsg247
Nsg248
Nsssg259
(dp1725
Vtx B-tx A
p1726
(dp1727
g242
F0.5664345089723853
sg243
F-1.3210229712553216
sg244
F-0.3772942311414682
sg245
F1.761973537528411
sg246
F0.6857142857142856
sg247
F0.26686216995757306
sg248
NssVtx A-tx B
p1728
(dp1729
g242
F1.3210229712553216
sg243
F-0.5664345089723853
sg244
F0.3772942311414682
sg245
F3.7472527490838607
sg246
F1.4583333333333335
sg247
F0.5675454135382414
sg248
Nsssg265
(dp1730
Vtx B-tx A
p1731
(dp1732
g242
Nsg243
Nsg244
Nsg245
Nsg246
Nsg247
Nsg248
NssVtx A-tx B
p1733
(dp1734
g242
Nsg243
Nsg244
Nsg245
Nsg246
Nsg247
Nsg248
Nsssg271
(dp1735
Vtx B-tx A
p1736
(dp1737
g242
Nsg243
Nsg244
Nsg245
Nsg246
Nsg247
Nsg248
NssVtx A-tx B
p1738
(dp1739
g242
Nsg243
Nsg244
Nsg245
Nsg246
Nsg247
Nsg248
Nsssg277
(dp1740
Vtx B-tx A
p1741
(dp1742
g242
Nsg243
Nsg244
Nsg245
Nsg246
Nsg247
Nsg248
NssVtx A-tx B
p1743
(dp1744
g242
Nsg243
Nsg244
Nsg245
Nsg246
Nsg247
Nsg248
Nsssg283
(dp1745
Vtx B-tx A
p1746
(dp1747
g242
Nsg243
Nsg244
Nsg245
Nsg246
Nsg247
Nsg248
NssVtx A-tx B
p1748
(dp1749
g242
Nsg243
Nsg244
Nsg245
Nsg246
Nsg247
Nsg248
Nsssg289
(dp1750
g65
(dp1751
g242
Nsg243
Nsg244
Nsg245
Nsg246
Nsg247
Nsg248
Nssg72
(dp1752
g242
Nsg243
Nsg244
Nsg245
Nsg246
Nsg247
Nsg248
Nsssg293
(dp1753
g65
(dp1754
g242
Nsg243
Nsg244
Nsg245
Nsg246
Nsg247
Nsg248
Nssg72
(dp1755
g242
Nsg243
Nsg244
Nsg245
Nsg246
Nsg247
Nsg248
Nsssg297
(dp1756
g65
(dp1757
g242
Nsg243
Nsg244
Nsg245
Nsg246
Nsg247
Nsg248
Nssg72
(dp1758
g242
Nsg243
Nsg244
Nsg245
Nsg246
Nsg247
Nsg248
Nsssg301
(dp1759
Vtx B-tx A
p1760
(dp1761
g242
F0.7117518176416322
sg243
F-1.6655999618222506
sg244
F-0.4769240720903092
sg245
F2.037557563262202
sg246
F0.6206896551724139
sg247
F0.18907718485324268
sg248
NssVtx A-tx B
p1762
(dp1763
g242
F1.6655999618222506
sg243
F-0.7117518176416322
sg244
F0.4769240720903092
sg245
F5.288845403393996
sg246
F1.6111111111106127
sg247
F0.49078368043678566
sg307
F95.0
sg308
F0.6064784348631227
sg248
F0.6064784348631227
ssssg151
I2
sbssg25
(dp1764
g27
(ima_dataset
MetaAnalyticUnit
p1765
(dp1766
g78
(dp1767
g313
(dp1768
Vtx B-tx A
p1769
(dp1770
g317
Nsg318
Nsg319
Nsg320
Nsg321
Nsg322
Nsg323
NssVtx A-tx B
p1771
(dp1772
g317
Nsg318
Nsg319
Nsg320
Nsg321
Nsg322
Nsg323
Nsssg326
(dp1773
g65
(dp1774
g317
Nsg318
Nsg319
Nsg320
Nsg321
Nsg322
Nsg323
Nssg72
(dp1775
g317
Nsg318
Nsg319
Nsg320
Nsg321
Nsg322
Nsg323
Nsssg330
(dp1776
g65
(dp1777
g317
Nsg318
Nsg319
Nsg320
Nsg321
Nsg322
Nsg323
Nssg72
(dp1778
g317
Nsg318
Nsg319
Nsg320
Nsg321
Nsg322
Nsg323
Nsssg334
(dp1779
Vtx B-tx A
p1780
(dp1781
g317
Nsg318
Nsg319
Nsg320
Nsg321
Nsg322
Nsg323
NssVtx A-tx B
p1782
(dp1783
g317
Nsg318
Nsg319
Nsg320
Nsg321
Nsg322
Nsg323
Nsssg340
(dp1784
Vtx B-tx A
p1785
(dp1786
g317
Nsg318
Nsg319
Nsg320
Nsg321
Nsg322
Nsg323
NssVtx A-tx B
p1787
(dp1788
g317
Nsg318
Nsg319
Nsg320
Nsg321
Nsg322
Nsg323
Nsssg346
(dp1789
Vtx B-tx A
p1790
(dp1791
g317
Nsg318
Nsg319
Nsg320
Nsg321
Nsg322
Nsg323
NssVtx A-tx B
p1792
(dp1793
g317
Nsg318
Nsg319
Nsg320
Nsg321
Nsg322
Nsg323
Nsssg352
(dp1794
Vtx B-tx A
p1795
(dp1796
g317
Nsg318
Nsg319
Nsg320
Nsg321
Nsg322
Nsg323
NssVtx A-tx B
p1797
(dp1798
g317
Nsg318
Nsg319
Nsg320
Nsg321
Nsg322
Nsg323
Nsssg358
(dp1799
g65
(dp1800
g317
Nsg318
Nsg319
Nsg320
Nsg321
Nsg322
Nsg323
Nssg72
(dp1801
g317
Nsg318
Nsg319
Nsg320
Nsg321
Nsg322
Nsg323
Nsssg362
(dp1802
g65
(dp1803
g317
Nsg318
Nsg319
Nsg320
Nsg321
Nsg322
Nsg323
Nssg72
(dp1804
g317
Nsg318
Nsg319
Nsg320
Nsg321
Nsg322
Nsg323
Nsssg366
(dp1805
g65
(dp1806
g317
Nsg318
Nsg319
Nsg320
Nsg321
Nsg322
Nsg323
Nssg72
(dp1807
g317
Nsg318
Nsg319
Nsg320
Nsg321
Nsg322
Nsg323
Nsssg370
(dp1808
Vtx B-tx A
p1809
(dp1810
g317
Nsg318
Nsg319
Nsg320
Nsg321
Nsg322
Nsg323
NssVtx A-tx B
p1811
(dp1812
g317
Nsg318
Nsg319
Nsg320
Nsg321
Nsg322
Nsg149
F95.0
sg150
Nsg323
Nssssg63
(dp1813
g65
(ima_dataset
TreatmentGroup
p1814
(dp1815
g68
(lp1816
g33
ag33
asg70
I0
sg43
g65
sbsg72
(ima_dataset
TreatmentGroup
p1817
(dp1818
g68
(lp1819
g33
ag33
asg70
I1
sg43
g72
sbssg77
g55
sg36
I00
sg151
I2
sbsssg383
I00
sg384
I1988
sg385
Nsg70
I6
sba(ima_dataset
Study
p1820
(dp1821
g42
I00
sg43
VVigano
p1822
sg45
(dp1823
sg32
g33
sg47
(lp1824
g49
ag53
ag55
asg58
(dp1825
g7
(dp1826
g12
(ima_dataset
MetaAnalyticUnit
p1827
(dp1828
g36
I00
sg63
(dp1829
g65
(ima_dataset
TreatmentGroup
p1830
(dp1831
g68
(lp1832
F2.0
aF74.0
asg70
I0
sg43
g71
sbsg72
(ima_dataset
TreatmentGroup
p1833
(dp1834
g68
(lp1835
F2.0
aF70.0
asg70
I1
sg43
g76
sbssg77
g53
sg78
(dp1836
g80
(dp1837
Vtx B-tx A
p1838
(dp1839
g84
Nsg85
Nsg86
Nsg87
Nsg88
Nsg89
Nsg90
NssVtx A-tx B
p1840
(dp1841
g84
Nsg85
Nsg86
Nsg87
Nsg88
Nsg89
Nsg90
Nsssg93
(dp1842
g65
(dp1843
g84
Nsg85
Nsg86
Nsg87
Nsg88
Nsg89
Nsg90
Nssg72
(dp1844
g84
Nsg85
Nsg86
Nsg87
Nsg88
Nsg89
Nsg90
Nsssg97
(dp1845
g65
(dp1846
g84
Nsg85
Nsg86
Nsg87
Nsg88
Nsg89
Nsg90
Nssg72
(dp1847
g84
Nsg85
Nsg86
Nsg87
Nsg88
Nsg89
Nsg90
Nsssg101
(dp1848
Vtx B-tx A
p1849
(dp1850
g84
Nsg85
Nsg86
Nsg87
Nsg88
Nsg89
Nsg90
NssVtx A-tx B
p1851
(dp1852
g84
F1.8769593806697158
sg85
F-1.9880990829793375
sg86
F-0.055569851154810834
sg87
F6.533608412719652
sg88
F0.9459459459459458
sg89
F0.1369555192364366
sg90
Nsssg107
(dp1853
Vtx B-tx A
p1854
(dp1855
g84
Nsg85
Nsg86
Nsg87
Nsg88
Nsg89
Nsg90
NssVtx A-tx B
p1856
(dp1857
g84
Nsg85
Nsg86
Nsg87
Nsg88
Nsg89
Nsg90
Nsssg113
(dp1858
Vtx B-tx A
p1859
(dp1860
g84
Nsg85
Nsg86
Nsg87
Nsg88
Nsg89
Nsg90
NssVtx A-tx B
p1861
(dp1862
g84
Nsg85
Nsg86
Nsg87
Nsg88
Nsg89
Nsg90
Nsssg119
(dp1863
Vtx B-tx A
p1864
(dp1865
g84
Nsg85
Nsg86
Nsg87
Nsg88
Nsg89
Nsg90
NssVtx A-tx B
p1866
(dp1867
g84
Nsg85
Nsg86
Nsg87
Nsg88
Nsg89
Nsg90
Nsssg125
(dp1868
Vtx B-tx A
p1869
(dp1870
g84
Nsg85
Nsg86
Nsg87
Nsg88
Nsg89
Nsg90
NssVtx A-tx B
p1871
(dp1872
g84
Nsg85
Nsg86
Nsg87
Nsg88
Nsg89
Nsg90
Nsssg131
(dp1873
g65
(dp1874
g84
Nsg85
Nsg86
Nsg87
Nsg88
Nsg89
Nsg90
Nssg72
(dp1875
g84
Nsg85
Nsg86
Nsg87
Nsg88
Nsg89
Nsg90
Nsssg135
(dp1876
g65
(dp1877
g84
Nsg85
Nsg86
Nsg87
Nsg88
Nsg89
Nsg90
Nssg72
(dp1878
g84
Nsg85
Nsg86
Nsg87
Nsg88
Nsg89
Nsg90
Nsssg139
(dp1879
g65
(dp1880
g84
Nsg85
Nsg86
Nsg87
Nsg88
Nsg89
Nsg90
Nssg72
(dp1881
g84
Nsg85
Nsg86
Nsg87
Nsg88
Nsg89
Nsg90
Nsssg143
(dp1882
Vtx B-tx A
p1883
(dp1884
g84
F2.044947249935669
sg85
F-1.9306304222557726
sg86
F0.05715841383994835
sg87
F7.728750835053053
sg88
F1.0588235294117645
sg89
F0.14505672266613956
sg90
NssVtx A-tx B
p1885
(dp1886
g84
F1.9306304222557729
sg85
F-2.0449472499356696
sg86
F-0.05715841383994835
sg87
F6.893854911542519
sg88
F0.9444444444444904
sg89
F0.129387014970163
sg149
F95.0
sg150
F1.0141966137006324
sg90
F1.0141966137006324
ssssg151
I2
sbssg18
(dp1887
N(ima_dataset
MetaAnalyticUnit
p1888
(dp1889
g78
(dp1890
g156
(dp1891
S'tx B-tx A'
p1892
(dp1893
g160
Nsg161
Nsg162
Nsg163
Nsg164
Nsg165
Nsg166
NssS'tx A-tx B'
p1894
(dp1895
g160
Nsg161
Nsg162
Nsg163
Nsg164
Nsg165
Nsg166
Nsssg169
(dp1896
g171
(dp1897
g160
Nsg161
Nsg162
Nsg163
Nsg164
Nsg165
Nsg166
Nssg173
(dp1898
g160
Nsg161
Nsg162
Nsg163
Nsg164
Nsg165
Nsg166
Nsssg175
(dp1899
g171
(dp1900
g160
Nsg161
Nsg162
Nsg163
Nsg164
Nsg165
Nsg166
Nssg173
(dp1901
g160
Nsg161
Nsg162
Nsg163
Nsg164
Nsg165
Nsg166
Nsssg179
(dp1902
S'tx B-tx A'
p1903
(dp1904
g160
Nsg161
Nsg162
Nsg163
Nsg164
Nsg165
Nsg166
NssS'tx A-tx B'
p1905
(dp1906
g160
Nsg161
Nsg162
Nsg163
Nsg164
Nsg165
Nsg166
Nsssg185
(dp1907
S'tx B-tx A'
p1908
(dp1909
g160
Nsg161
Nsg162
Nsg163
Nsg164
Nsg165
Nsg166
NssS'tx A-tx B'
p1910
(dp1911
g160
Nsg161
Nsg162
Nsg163
Nsg164
Nsg165
Nsg166
Nsssg191
(dp1912
S'tx B-tx A'
p1913
(dp1914
g160
Nsg161
Nsg162
Nsg163
Nsg164
Nsg165
Nsg166
NssS'tx A-tx B'
p1915
(dp1916
g160
Nsg161
Nsg162
Nsg163
Nsg164
Nsg165
Nsg166
Nsssg197
(dp1917
S'tx B-tx A'
p1918
(dp1919
g160
Nsg161
Nsg162
Nsg163
Nsg164
Nsg165
Nsg166
NssS'tx A-tx B'
p1920
(dp1921
g160
Nsg161
Nsg162
Nsg163
Nsg164
Nsg165
Nsg166
Nsssg203
(dp1922
g171
(dp1923
g160
Nsg161
Nsg162
Nsg163
Nsg164
Nsg165
Nsg166
Nssg173
(dp1924
g160
Nsg161
Nsg162
Nsg163
Nsg164
Nsg165
Nsg166
Nsssg207
(dp1925
g171
(dp1926
g160
Nsg161
Nsg162
Nsg163
Nsg164
Nsg165
Nsg166
Nssg173
(dp1927
g160
Nsg161
Nsg162
Nsg163
Nsg164
Nsg165
Nsg166
Nsssg211
(dp1928
g171
(dp1929
g160
Nsg161
Nsg162
Nsg163
Nsg164
Nsg165
Nsg166
Nssg173
(dp1930
g160
Nsg161
Nsg162
Nsg163
Nsg164
Nsg165
Nsg166
Nsssg215
(dp1931
S'tx B-tx A'
p1932
(dp1933
g160
Nsg161
Nsg162
Nsg163
Nsg164
Nsg165
Nsg166
NssS'tx A-tx B'
p1934
(dp1935
g160
Nsg161
Nsg162
Nsg163
Nsg164
Nsg165
Nsg166
Nssssg63
(dp1936
g171
(ima_dataset
TreatmentGroup
p1937
(dp1938
g68
(lp1939
g33
ag33
asg70
I0
sg43
g171
sbsg173
(ima_dataset
TreatmentGroup
p1940
(dp1941
g68
(lp1942
g33
ag33
asg70
I1
sg43
g173
sbssg77
g49
sg36
I00
sg151
I2
sbsg20
(ima_dataset
MetaAnalyticUnit
p1943
(dp1944
g36
I00
sg63
(dp1945
g65
(ima_dataset
TreatmentGroup
p1946
(dp1947
g68
(lp1948
F1.0
aF74.0
asg70
I0
sg43
g71
sbsg72
(ima_dataset
TreatmentGroup
p1949
(dp1950
g68
(lp1951
F0.0
aF70.0
asg70
I1
sg43
g76
sbssg77
g49
sg78
(dp1952
g238
(dp1953
Vtx B-tx A
p1954
(dp1955
g242
Nsg243
Nsg244
Nsg245
Nsg246
Nsg247
Nsg248
NssVtx A-tx B
p1956
(dp1957
g242
Nsg243
Nsg244
Nsg245
Nsg246
Nsg247
Nsg248
Nsssg251
(dp1958
g65
(dp1959
g242
Nsg243
Nsg244
Nsg245
Nsg246
Nsg247
Nsg248
Nssg72
(dp1960
g242
Nsg243
Nsg244
Nsg245
Nsg246
Nsg247
Nsg248
Nsssg255
(dp1961
g65
(dp1962
g242
Nsg243
Nsg244
Nsg245
Nsg246
Nsg247
Nsg248
Nssg72
(dp1963
g242
Nsg243
Nsg244
Nsg245
Nsg246
Nsg247
Nsg248
Nsssg259
(dp1964
Vtx B-tx A
p1965
(dp1966
g242
F2.1403073911910275
sg243
F-4.227915495537257
sg244
F-1.043804052173115
sg245
F8.502050682736224
sg246
F0.35211267605633795
sg247
F0.014582756709661719
sg248
NssVtx A-tx B
p1967
(dp1968
g242
F4.227915495537257
sg243
F-2.1403073911910275
sg244
F1.043804052173115
sg245
F68.57413998667728
sg246
F2.8400000000000007
sg247
F0.11761868251744756
sg248
Nsssg265
(dp1969
Vtx B-tx A
p1970
(dp1971
g242
Nsg243
Nsg244
Nsg245
Nsg246
Nsg247
Nsg248
NssVtx A-tx B
p1972
(dp1973
g242
Nsg243
Nsg244
Nsg245
Nsg246
Nsg247
Nsg248
Nsssg271
(dp1974
Vtx B-tx A
p1975
(dp1976
g242
Nsg243
Nsg244
Nsg245
Nsg246
Nsg247
Nsg248
NssVtx A-tx B
p1977
(dp1978
g242
Nsg243
Nsg244
Nsg245
Nsg246
Nsg247
Nsg248
Nsssg277
(dp1979
Vtx B-tx A
p1980
(dp1981
g242
Nsg243
Nsg244
Nsg245
Nsg246
Nsg247
Nsg248
NssVtx A-tx B
p1982
(dp1983
g242
Nsg243
Nsg244
Nsg245
Nsg246
Nsg247
Nsg248
Nsssg283
(dp1984
Vtx B-tx A
p1985
(dp1986
g242
Nsg243
Nsg244
Nsg245
Nsg246
Nsg247
Nsg248
NssVtx A-tx B
p1987
(dp1988
g242
Nsg243
Nsg244
Nsg245
Nsg246
Nsg247
Nsg248
Nsssg289
(dp1989
g65
(dp1990
g242
Nsg243
Nsg244
Nsg245
Nsg246
Nsg247
Nsg248
Nssg72
(dp1991
g242
Nsg243
Nsg244
Nsg245
Nsg246
Nsg247
Nsg248
Nsssg293
(dp1992
g65
(dp1993
g242
Nsg243
Nsg244
Nsg245
Nsg246
Nsg247
Nsg248
Nssg72
(dp1994
g242
Nsg243
Nsg244
Nsg245
Nsg246
Nsg247
Nsg248
Nsssg297
(dp1995
g65
(dp1996
g242
Nsg243
Nsg244
Nsg245
Nsg246
Nsg247
Nsg248
Nssg72
(dp1997
g242
Nsg243
Nsg244
Nsg245
Nsg246
Nsg247
Nsg248
Nsssg301
(dp1998
Vtx B-tx A
p1999
(dp2000
g242
F2.160302038691492
sg243
F-4.2741812232265755
sg244
F-1.056939592267542
sg245
F8.673757073097935
sg246
F0.3475177304964538
sg247
F0.013923444245859196
sg248
NssVtx A-tx B
p2001
(dp2002
g242
F4.274181223226576
sg243
F-2.1603020386914924
sg244
F1.056939592267542
sg245
F71.82130960885075
sg246
F2.8775510204152375
sg247
F0.1152902936494543
sg307
F95.0
sg308
F1.6414799742935209
sg248
F1.6414799742935209
ssssg151
I2
sbssg25
(dp2003
g27
(ima_dataset
MetaAnalyticUnit
p2004
(dp2005
g78
(dp2006
g313
(dp2007
Vtx B-tx A
p2008
(dp2009
g317
Nsg318
Nsg319
Nsg320
Nsg321
Nsg322
Nsg323
NssVtx A-tx B
p2010
(dp2011
g317
Nsg318
Nsg319
Nsg320
Nsg321
Nsg322
Nsg323
Nsssg326
(dp2012
g65
(dp2013
g317
Nsg318
Nsg319
Nsg320
Nsg321
Nsg322
Nsg323
Nssg72
(dp2014
g317
Nsg318
Nsg319
Nsg320
Nsg321
Nsg322
Nsg323
Nsssg330
(dp2015
g65
(dp2016
g317
Nsg318
Nsg319
Nsg320
Nsg321
Nsg322
Nsg323
Nssg72
(dp2017
g317
Nsg318
Nsg319
Nsg320
Nsg321
Nsg322
Nsg323
Nsssg334
(dp2018
Vtx B-tx A
p2019
(dp2020
g317
Nsg318
Nsg319
Nsg320
Nsg321
Nsg322
Nsg323
NssVtx A-tx B
p2021
(dp2022
g317
Nsg318
Nsg319
Nsg320
Nsg321
Nsg322
Nsg323
Nsssg340
(dp2023
Vtx B-tx A
p2024
(dp2025
g317
Nsg318
Nsg319
Nsg320
Nsg321
Nsg322
Nsg323
NssVtx A-tx B
p2026
(dp2027
g317
Nsg318
Nsg319
Nsg320
Nsg321
Nsg322
Nsg323
Nsssg346
(dp2028
Vtx B-tx A
p2029
(dp2030
g317
Nsg318
Nsg319
Nsg320
Nsg321
Nsg322
Nsg323
NssVtx A-tx B
p2031
(dp2032
g317
Nsg318
Nsg319
Nsg320
Nsg321
Nsg322
Nsg323
Nsssg352
(dp2033
Vtx B-tx A
p2034
(dp2035
g317
Nsg318
Nsg319
Nsg320
Nsg321
Nsg322
Nsg323
NssVtx A-tx B
p2036
(dp2037
g317
Nsg318
Nsg319
Nsg320
Nsg321
Nsg322
Nsg323
Nsssg358
(dp2038
g65
(dp2039
g317
Nsg318
Nsg319
Nsg320
Nsg321
Nsg322
Nsg323
Nssg72
(dp2040
g317
Nsg318
Nsg319
Nsg320
Nsg321
Nsg322
Nsg323
Nsssg362
(dp2041
g65
(dp2042
g317
Nsg318
Nsg319
Nsg320
Nsg321
Nsg322
Nsg323
Nssg72
(dp2043
g317
Nsg318
Nsg319
Nsg320
Nsg321
Nsg322
Nsg323
Nsssg366
(dp2044
g65
(dp2045
g317
Nsg318
Nsg319
Nsg320
Nsg321
Nsg322
Nsg323
Nssg72
(dp2046
g317
Nsg318
Nsg319
Nsg320
Nsg321
Nsg322
Nsg323
Nsssg370
(dp2047
Vtx B-tx A
p2048
(dp2049
g317
Nsg318
Nsg319
Nsg320
Nsg321
Nsg322
Nsg323
NssVtx A-tx B
p2050
(dp2051
g317
Nsg318
Nsg319
Nsg320
Nsg321
Nsg322
Nsg149
F95.0
sg150
Nsg323
Nssssg63
(dp2052
g65
(ima_dataset
TreatmentGroup
p2053
(dp2054
g68
(lp2055
g33
ag33
asg70
I0
sg43
g65
sbsg72
(ima_dataset
TreatmentGroup
p2056
(dp2057
g68
(lp2058
g33
ag33
asg70
I1
sg43
g72
sbssg77
g55
sg36
I00
sg151
I2
sbsssg383
I00
sg384
I1992
sg385
Nsg70
I7
sba(ima_dataset
Study
p2059
(dp2060
g42
I00
sg43
VHansen
p2061
sg45
(dp2062
sg32
g33
sg47
(lp2063
g49
ag53
ag55
asg58
(dp2064
g7
(dp2065
g12
(ima_dataset
MetaAnalyticUnit
p2066
(dp2067
g36
I00
sg63
(dp2068
g65
(ima_dataset
TreatmentGroup
p2069
(dp2070
g68
(lp2071
F0.0
aF31.0
asg70
I0
sg43
g71
sbsg72
(ima_dataset
TreatmentGroup
p2072
(dp2073
g68
(lp2074
F3.0
aF33.0
asg70
I1
sg43
g76
sbssg77
g53
sg78
(dp2075
g80
(dp2076
Vtx B-tx A
p2077
(dp2078
g84
Nsg85
Nsg86
Nsg87
Nsg88
Nsg89
Nsg90
NssVtx A-tx B
p2079
(dp2080
g84
Nsg85
Nsg86
Nsg87
Nsg88
Nsg89
Nsg90
Nsssg93
(dp2081
g65
(dp2082
g84
Nsg85
Nsg86
Nsg87
Nsg88
Nsg89
Nsg90
Nssg72
(dp2083
g84
Nsg85
Nsg86
Nsg87
Nsg88
Nsg89
Nsg90
Nsssg97
(dp2084
g65
(dp2085
g84
Nsg85
Nsg86
Nsg87
Nsg88
Nsg89
Nsg90
Nssg72
(dp2086
g84
Nsg85
Nsg86
Nsg87
Nsg88
Nsg89
Nsg90
Nsssg101
(dp2087
Vtx B-tx A
p2088
(dp2089
g84
Nsg85
Nsg86
Nsg87
Nsg88
Nsg89
Nsg90
NssVtx A-tx B
p2090
(dp2091
g84
F1.0383162981360186
sg85
F-4.808887352613775
sg86
F-1.885285527238878
sg87
F2.82445746434688
sg88
F0.15178571428571436
sg89
F0.008156930437807798
sg90
Nsssg107
(dp2092
Vtx B-tx A
p2093
(dp2094
g84
Nsg85
Nsg86
Nsg87
Nsg88
Nsg89
Nsg90
NssVtx A-tx B
p2095
(dp2096
g84
Nsg85
Nsg86
Nsg87
Nsg88
Nsg89
Nsg90
Nsssg113
(dp2097
Vtx B-tx A
p2098
(dp2099
g84
Nsg85
Nsg86
Nsg87
Nsg88
Nsg89
Nsg90
NssVtx A-tx B
p2100
(dp2101
g84
Nsg85
Nsg86
Nsg87
Nsg88
Nsg89
Nsg90
Nsssg119
(dp2102
Vtx B-tx A
p2103
(dp2104
g84
Nsg85
Nsg86
Nsg87
Nsg88
Nsg89
Nsg90
NssVtx A-tx B
p2105
(dp2106
g84
Nsg85
Nsg86
Nsg87
Nsg88
Nsg89
Nsg90
Nsssg125
(dp2107
Vtx B-tx A
p2108
(dp2109
g84
Nsg85
Nsg86
Nsg87
Nsg88
Nsg89
Nsg90
NssVtx A-tx B
p2110
(dp2111
g84
Nsg85
Nsg86
Nsg87
Nsg88
Nsg89
Nsg90
Nsssg131
(dp2112
g65
(dp2113
g84
Nsg85
Nsg86
Nsg87
Nsg88
Nsg89
Nsg90
Nssg72
(dp2114
g84
Nsg85
Nsg86
Nsg87
Nsg88
Nsg89
Nsg90
Nsssg135
(dp2115
g65
(dp2116
g84
Nsg85
Nsg86
Nsg87
Nsg88
Nsg89
Nsg90
Nssg72
(dp2117
g84
Nsg85
Nsg86
Nsg87
Nsg88
Nsg89
Nsg90
Nsssg139
(dp2118
g65
(dp2119
g84
Nsg85
Nsg86
Nsg87
Nsg88
Nsg89
Nsg90
Nssg72
(dp2120
g84
Nsg85
Nsg86
Nsg87
Nsg88
Nsg89
Nsg90
Nsssg143
(dp2121
Vtx B-tx A
p2122
(dp2123
g84
F4.982896930163225
sg85
F-1.026554907616156
sg86
F1.9781710112735347
sg87
F145.89642179304994
sg88
F7.229508196721311
sg89
F0.3582390035623915
sg90
NssVtx A-tx B
p2124
(dp2125
g84
F1.0265549076161564
sg85
F-4.982896930163226
sg86
F-1.9781710112735347
sg87
F2.791432507515007
sg88
F0.13832199546534155
sg89
F0.006854177694787453
sg149
F95.0
sg150
F1.5330515981878168
sg90
F1.5330515981878168
ssssg151
I2
sbssg18
(dp2126
N(ima_dataset
MetaAnalyticUnit
p2127
(dp2128
g78
(dp2129
g156
(dp2130
S'tx B-tx A'
p2131
(dp2132
g160
Nsg161
Nsg162
Nsg163
Nsg164
Nsg165
Nsg166
NssS'tx A-tx B'
p2133
(dp2134
g160
Nsg161
Nsg162
Nsg163
Nsg164
Nsg165
Nsg166
Nsssg169
(dp2135
g171
(dp2136
g160
Nsg161
Nsg162
Nsg163
Nsg164
Nsg165
Nsg166
Nssg173
(dp2137
g160
Nsg161
Nsg162
Nsg163
Nsg164
Nsg165
Nsg166
Nsssg175
(dp2138
g171
(dp2139
g160
Nsg161
Nsg162
Nsg163
Nsg164
Nsg165
Nsg166
Nssg173
(dp2140
g160
Nsg161
Nsg162
Nsg163
Nsg164
Nsg165
Nsg166
Nsssg179
(dp2141
S'tx B-tx A'
p2142
(dp2143
g160
Nsg161
Nsg162
Nsg163
Nsg164
Nsg165
Nsg166
NssS'tx A-tx B'
p2144
(dp2145
g160
Nsg161
Nsg162
Nsg163
Nsg164
Nsg165
Nsg166
Nsssg185
(dp2146
S'tx B-tx A'
p2147
(dp2148
g160
Nsg161
Nsg162
Nsg163
Nsg164
Nsg165
Nsg166
NssS'tx A-tx B'
p2149
(dp2150
g160
Nsg161
Nsg162
Nsg163
Nsg164
Nsg165
Nsg166
Nsssg191
(dp2151
S'tx B-tx A'
p2152
(dp2153
g160
Nsg161
Nsg162
Nsg163
Nsg164
Nsg165
Nsg166
NssS'tx A-tx B'
p2154
(dp2155
g160
Nsg161
Nsg162
Nsg163
Nsg164
Nsg165
Nsg166
Nsssg197
(dp2156
S'tx B-tx A'
p2157
(dp2158
g160
Nsg161
Nsg162
Nsg163
Nsg164
Nsg165
Nsg166
NssS'tx A-tx B'
p2159
(dp2160
g160
Nsg161
Nsg162
Nsg163
Nsg164
Nsg165
Nsg166
Nsssg203
(dp2161
g171
(dp2162
g160
Nsg161
Nsg162
Nsg163
Nsg164
Nsg165
Nsg166
Nssg173
(dp2163
g160
Nsg161
Nsg162
Nsg163
Nsg164
Nsg165
Nsg166
Nsssg207
(dp2164
g171
(dp2165
g160
Nsg161
Nsg162
Nsg163
Nsg164
Nsg165
Nsg166
Nssg173
(dp2166
g160
Nsg161
Nsg162
Nsg163
Nsg164
Nsg165
Nsg166
Nsssg211
(dp2167
g171
(dp2168
g160
Nsg161
Nsg162
Nsg163
Nsg164
Nsg165
Nsg166
Nssg173
(dp2169
g160
Nsg161
Nsg162
Nsg163
Nsg164
Nsg165
Nsg166
Nsssg215
(dp2170
S'tx B-tx A'
p2171
(dp2172
g160
Nsg161
Nsg162
Nsg163
Nsg164
Nsg165
Nsg166
NssS'tx A-tx B'
p2173
(dp2174
g160
Nsg161
Nsg162
Nsg163
Nsg164
Nsg165
Nsg166
Nssssg63
(dp2175
g171
(ima_dataset
TreatmentGroup
p2176
(dp2177
g68
(lp2178
g33
ag33
asg70
I0
sg43
g171
sbsg173
(ima_dataset
TreatmentGroup
p2179
(dp2180
g68
(lp2181
g33
ag33
asg70
I1
sg43
g173
sbssg77
g49
sg36
I00
sg151
I2
sbsg20
(ima_dataset
MetaAnalyticUnit
p2182
(dp2183
g36
I00
sg63
(dp2184
g65
(ima_dataset
TreatmentGroup
p2185
(dp2186
g68
(lp2187
F2.0
aF28.0
asg70
I0
sg43
g71
sbsg72
(ima_dataset
TreatmentGroup
p2188
(dp2189
g68
(lp2190
F11.0
aF31.0
asg70
I1
sg43
g76
sbssg77
g49
sg78
(dp2191
g238
(dp2192
Vtx B-tx A
p2193
(dp2194
g242
Nsg243
Nsg244
Nsg245
Nsg246
Nsg247
Nsg248
NssVtx A-tx B
p2195
(dp2196
g242
Nsg243
Nsg244
Nsg245
Nsg246
Nsg247
Nsg248
Nsssg251
(dp2197
g65
(dp2198
g242
Nsg243
Nsg244
Nsg245
Nsg246
Nsg247
Nsg248
Nssg72
(dp2199
g242
Nsg243
Nsg244
Nsg245
Nsg246
Nsg247
Nsg248
Nsssg255
(dp2200
g65
(dp2201
g242
Nsg243
Nsg244
Nsg245
Nsg246
Nsg247
Nsg248
Nssg72
(dp2202
g242
Nsg243
Nsg244
Nsg245
Nsg246
Nsg247
Nsg248
Nsssg259
(dp2203
Vtx B-tx A
p2204
(dp2205
g242
F3.020300910481928
sg243
F0.18562988537503844
sg244
F1.6029653979284832
sg245
F20.49745865645572
sg246
F4.967741935483873
sg247
F1.2039765685680508
sg248
NssVtx A-tx B
p2206
(dp2207
g242
F-0.18562988537503822
sg243
F-3.0203009104819283
sg244
F-1.6029653979284832
sg245
F0.8305809482566175
sg246
F0.20129870129870123
sg247
F0.048786535773060205
sg248
Nsssg265
(dp2208
Vtx B-tx A
p2209
(dp2210
g242
Nsg243
Nsg244
Nsg245
Nsg246
Nsg247
Nsg248
NssVtx A-tx B
p2211
(dp2212
g242
Nsg243
Nsg244
Nsg245
Nsg246
Nsg247
Nsg248
Nsssg271
(dp2213
Vtx B-tx A
p2214
(dp2215
g242
Nsg243
Nsg244
Nsg245
Nsg246
Nsg247
Nsg248
NssVtx A-tx B
p2216
(dp2217
g242
Nsg243
Nsg244
Nsg245
Nsg246
Nsg247
Nsg248
Nsssg277
(dp2218
Vtx B-tx A
p2219
(dp2220
g242
Nsg243
Nsg244
Nsg245
Nsg246
Nsg247
Nsg248
NssVtx A-tx B
p2221
(dp2222
g242
Nsg243
Nsg244
Nsg245
Nsg246
Nsg247
Nsg248
Nsssg283
(dp2223
Vtx B-tx A
p2224
(dp2225
g242
Nsg243
Nsg244
Nsg245
Nsg246
Nsg247
Nsg248
NssVtx A-tx B
p2226
(dp2227
g242
Nsg243
Nsg244
Nsg245
Nsg246
Nsg247
Nsg248
Nsssg289
(dp2228
g65
(dp2229
g242
Nsg243
Nsg244
Nsg245
Nsg246
Nsg247
Nsg248
Nssg72
(dp2230
g242
Nsg243
Nsg244
Nsg245
Nsg246
Nsg247
Nsg248
Nsssg293
(dp2231
g65
(dp2232
g242
Nsg243
Nsg244
Nsg245
Nsg246
Nsg247
Nsg248
Nssg72
(dp2233
g242
Nsg243
Nsg244
Nsg245
Nsg246
Nsg247
Nsg248
Nsssg297
(dp2234
g65
(dp2235
g242
Nsg243
Nsg244
Nsg245
Nsg246
Nsg247
Nsg248
Nssg72
(dp2236
g242
Nsg243
Nsg244
Nsg245
Nsg246
Nsg247
Nsg248
Nsssg301
(dp2237
Vtx B-tx A
p2238
(dp2239
g242
F3.5825919439233846
sg243
F0.3516327694884478
sg244
F1.9671123567059163
sg245
F35.96664365978304
sg246
F7.15
sg247
F1.4213864513903431
sg248
NssVtx A-tx B
p2240
(dp2241
g242
F-0.35163276948844757
sg243
F-3.582591943923385
sg244
F-1.9671123567059163
sg245
F0.703538435322982
sg246
F0.13986013985956872
sg247
F0.02780353956467611
sg307
F95.0
sg308
F0.8242394247854379
sg248
F0.8242394247854379
ssssg151
I2
sbssg25
(dp2242
g27
(ima_dataset
MetaAnalyticUnit
p2243
(dp2244
g78
(dp2245
g313
(dp2246
Vtx B-tx A
p2247
(dp2248
g317
Nsg318
Nsg319
Nsg320
Nsg321
Nsg322
Nsg323
NssVtx A-tx B
p2249
(dp2250
g317
Nsg318
Nsg319
Nsg320
Nsg321
Nsg322
Nsg323
Nsssg326
(dp2251
g65
(dp2252
g317
Nsg318
Nsg319
Nsg320
Nsg321
Nsg322
Nsg323
Nssg72
(dp2253
g317
Nsg318
Nsg319
Nsg320
Nsg321
Nsg322
Nsg323
Nsssg330
(dp2254
g65
(dp2255
g317
Nsg318
Nsg319
Nsg320
Nsg321
Nsg322
Nsg323
Nssg72
(dp2256
g317
Nsg318
Nsg319
Nsg320
Nsg321
Nsg322
Nsg323
Nsssg334
(dp2257
Vtx B-tx A
p2258
(dp2259
g317
Nsg318
Nsg319
Nsg320
Nsg321
Nsg322
Nsg323
NssVtx A-tx B
p2260
(dp2261
g317
Nsg318
Nsg319
Nsg320
Nsg321
Nsg322
Nsg323
Nsssg340
(dp2262
Vtx B-tx A
p2263
(dp2264
g317
Nsg318
Nsg319
Nsg320
Nsg321
Nsg322
Nsg323
NssVtx A-tx B
p2265
(dp2266
g317
Nsg318
Nsg319
Nsg320
Nsg321
Nsg322
Nsg323
Nsssg346
(dp2267
Vtx B-tx A
p2268
(dp2269
g317
Nsg318
Nsg319
Nsg320
Nsg321
Nsg322
Nsg323
NssVtx A-tx B
p2270
(dp2271
g317
Nsg318
Nsg319
Nsg320
Nsg321
Nsg322
Nsg323
Nsssg352
(dp2272
Vtx B-tx A
p2273
(dp2274
g317
Nsg318
Nsg319
Nsg320
Nsg321
Nsg322
Nsg323
NssVtx A-tx B
p2275
(dp2276
g317
Nsg318
Nsg319
Nsg320
Nsg321
Nsg322
Nsg323
Nsssg358
(dp2277
g65
(dp2278
g317
Nsg318
Nsg319
Nsg320
Nsg321
Nsg322
Nsg323
Nssg72
(dp2279
g317
Nsg318
Nsg319
Nsg320
Nsg321
Nsg322
Nsg323
Nsssg362
(dp2280
g65
(dp2281
g317
Nsg318
Nsg319
Nsg320
Nsg321
Nsg322
Nsg323
Nssg72
(dp2282
g317
Nsg318
Nsg319
Nsg320
Nsg321
Nsg322
Nsg323
Nsssg366
(dp2283
g65
(dp2284
g317
Nsg318
Nsg319
Nsg320
Nsg321
Nsg322
Nsg323
Nssg72
(dp2285
g317
Nsg318
Nsg319
Nsg320
Nsg321
Nsg322
Nsg323
Nsssg370
(dp2286
Vtx B-tx A
p2287
(dp2288
g317
Nsg318
Nsg319
Nsg320
Nsg321
Nsg322
Nsg323
NssVtx A-tx B
p2289
(dp2290
g317
Nsg318
Nsg319
Nsg320
Nsg321
Nsg322
Nsg149
F95.0
sg150
Nsg323
Nssssg63
(dp2291
g65
(ima_dataset
TreatmentGroup
p2292
(dp2293
g68
(lp2294
g33
ag33
asg70
I0
sg43
g65
sbsg72
(ima_dataset
TreatmentGroup
p2295
(dp2296
g68
(lp2297
g33
ag33
asg70
I1
sg43
g72
sbssg77
g55
sg36
I00
sg151
I2
sbsssg383
I00
sg384
I1988
sg385
Nsg70
I8
sba(ima_dataset
Study
p2298
(dp2299
g42
I00
sg43
VDe Vries
p2300
sg45
(dp2301
sg32
g33
sg47
(lp2302
g49
ag53
ag55
asg58
(dp2303
g7
(dp2304
g12
(ima_dataset
MetaAnalyticUnit
p2305
(dp2306
g36
I00
sg63
(dp2307
g65
(ima_dataset
TreatmentGroup
p2308
(dp2309
g68
(lp2310
F9.0
aF81.0
asg70
I0
sg43
g71
sbsg72
(ima_dataset
TreatmentGroup
p2311
(dp2312
g68
(lp2313
F8.0
aF90.0
asg70
I1
sg43
g76
sbssg77
g53
sg78
(dp2314
g80
(dp2315
Vtx B-tx A
p2316
(dp2317
g84
Nsg85
Nsg86
Nsg87
Nsg88
Nsg89
Nsg90
NssVtx A-tx B
p2318
(dp2319
g84
Nsg85
Nsg86
Nsg87
Nsg88
Nsg89
Nsg90
Nsssg93
(dp2320
g65
(dp2321
g84
Nsg85
Nsg86
Nsg87
Nsg88
Nsg89
Nsg90
Nssg72
(dp2322
g84
Nsg85
Nsg86
Nsg87
Nsg88
Nsg89
Nsg90
Nsssg97
(dp2323
g65
(dp2324
g84
Nsg85
Nsg86
Nsg87
Nsg88
Nsg89
Nsg90
Nssg72
(dp2325
g84
Nsg85
Nsg86
Nsg87
Nsg88
Nsg89
Nsg90
Nsssg101
(dp2326
Vtx B-tx A
p2327
(dp2328
g84
Nsg85
Nsg86
Nsg87
Nsg88
Nsg89
Nsg90
NssVtx A-tx B
p2329
(dp2330
g84
F1.1269703140938612
sg85
F-0.6806832114654416
sg86
F0.2231435513142097
sg87
F3.0862918264291834
sg88
F1.25
sg89
F0.5062709840397046
sg90
Nsssg107
(dp2331
Vtx B-tx A
p2332
(dp2333
g84
Nsg85
Nsg86
Nsg87
Nsg88
Nsg89
Nsg90
NssVtx A-tx B
p2334
(dp2335
g84
Nsg85
Nsg86
Nsg87
Nsg88
Nsg89
Nsg90
Nsssg113
(dp2336
Vtx B-tx A
p2337
(dp2338
g84
Nsg85
Nsg86
Nsg87
Nsg88
Nsg89
Nsg90
NssVtx A-tx B
p2339
(dp2340
g84
Nsg85
Nsg86
Nsg87
Nsg88
Nsg89
Nsg90
Nsssg119
(dp2341
Vtx B-tx A
p2342
(dp2343
g84
Nsg85
Nsg86
Nsg87
Nsg88
Nsg89
Nsg90
NssVtx A-tx B
p2344
(dp2345
g84
Nsg85
Nsg86
Nsg87
Nsg88
Nsg89
Nsg90
Nsssg125
(dp2346
Vtx B-tx A
p2347
(dp2348
g84
Nsg85
Nsg86
Nsg87
Nsg88
Nsg89
Nsg90
NssVtx A-tx B
p2349
(dp2350
g84
Nsg85
Nsg86
Nsg87
Nsg88
Nsg89
Nsg90
Nsssg131
(dp2351
g65
(dp2352
g84
Nsg85
Nsg86
Nsg87
Nsg88
Nsg89
Nsg90
Nssg72
(dp2353
g84
Nsg85
Nsg86
Nsg87
Nsg88
Nsg89
Nsg90
Nsssg135
(dp2354
g65
(dp2355
g84
Nsg85
Nsg86
Nsg87
Nsg88
Nsg89
Nsg90
Nssg72
(dp2356
g84
Nsg85
Nsg86
Nsg87
Nsg88
Nsg89
Nsg90
Nsssg139
(dp2357
g65
(dp2358
g84
Nsg85
Nsg86
Nsg87
Nsg88
Nsg89
Nsg90
Nssg72
(dp2359
g84
Nsg85
Nsg86
Nsg87
Nsg88
Nsg89
Nsg90
Nsssg143
(dp2360
Vtx B-tx A
p2361
(dp2362
g84
F0.7557632402216286
sg85
F-1.2514355680307914
sg86
F-0.2478361639045814
sg87
F2.1292360219083806
sg88
F0.7804878048780487
sg89
F0.28609379481443264
sg90
NssVtx A-tx B
p2363
(dp2364
g84
F1.2514355680307916
sg85
F-0.7557632402216288
sg86
F0.2478361639045814
sg87
F3.4953571804933166
sg88
F1.2812500000005365
sg89
F0.46965202058875266
sg149
F95.0
sg150
F0.5120499213467565
sg90
F0.5120499213467565
ssssg151
I2
sbssg18
(dp2365
N(ima_dataset
MetaAnalyticUnit
p2366
(dp2367
g78
(dp2368
g156
(dp2369
S'tx B-tx A'
p2370
(dp2371
g160
Nsg161
Nsg162
Nsg163
Nsg164
Nsg165
Nsg166
NssS'tx A-tx B'
p2372
(dp2373
g160
Nsg161
Nsg162
Nsg163
Nsg164
Nsg165
Nsg166
Nsssg169
(dp2374
g171
(dp2375
g160
Nsg161
Nsg162
Nsg163
Nsg164
Nsg165
Nsg166
Nssg173
(dp2376
g160
Nsg161
Nsg162
Nsg163
Nsg164
Nsg165
Nsg166
Nsssg175
(dp2377
g171
(dp2378
g160
Nsg161
Nsg162
Nsg163
Nsg164
Nsg165
Nsg166
Nssg173
(dp2379
g160
Nsg161
Nsg162
Nsg163
Nsg164
Nsg165
Nsg166
Nsssg179
(dp2380
S'tx B-tx A'
p2381
(dp2382
g160
Nsg161
Nsg162
Nsg163
Nsg164
Nsg165
Nsg166
NssS'tx A-tx B'
p2383
(dp2384
g160
Nsg161
Nsg162
Nsg163
Nsg164
Nsg165
Nsg166
Nsssg185
(dp2385
S'tx B-tx A'
p2386
(dp2387
g160
Nsg161
Nsg162
Nsg163
Nsg164
Nsg165
Nsg166
NssS'tx A-tx B'
p2388
(dp2389
g160
Nsg161
Nsg162
Nsg163
Nsg164
Nsg165
Nsg166
Nsssg191
(dp2390
S'tx B-tx A'
p2391
(dp2392
g160
Nsg161
Nsg162
Nsg163
Nsg164
Nsg165
Nsg166
NssS'tx A-tx B'
p2393
(dp2394
g160
Nsg161
Nsg162
Nsg163
Nsg164
Nsg165
Nsg166
Nsssg197
(dp2395
S'tx B-tx A'
p2396
(dp2397
g160
Nsg161
Nsg162
Nsg163
Nsg164
Nsg165
Nsg166
NssS'tx A-tx B'
p2398
(dp2399
g160
Nsg161
Nsg162
Nsg163
Nsg164
Nsg165
Nsg166
Nsssg203
(dp2400
g171
(dp2401
g160
Nsg161
Nsg162
Nsg163
Nsg164
Nsg165
Nsg166
Nssg173
(dp2402
g160
Nsg161
Nsg162
Nsg163
Nsg164
Nsg165
Nsg166
Nsssg207
(dp2403
g171
(dp2404
g160
Nsg161
Nsg162
Nsg163
Nsg164
Nsg165
Nsg166
Nssg173
(dp2405
g160
Nsg161
Nsg162
Nsg163
Nsg164
Nsg165
Nsg166
Nsssg211
(dp2406
g171
(dp2407
g160
Nsg161
Nsg162
Nsg163
Nsg164
Nsg165
Nsg166
Nssg173
(dp2408
g160
Nsg161
Nsg162
Nsg163
Nsg164
Nsg165
Nsg166
Nsssg215
(dp2409
S'tx B-tx A'
p2410
(dp2411
g160
Nsg161
Nsg162
Nsg163
Nsg164
Nsg165
Nsg166
NssS'tx A-tx B'
p2412
(dp2413
g160
Nsg161
Nsg162
Nsg163
Nsg164
Nsg165
Nsg166
Nssssg63
(dp2414
g171
(ima_dataset
TreatmentGroup
p2415
(dp2416
g68
(lp2417
g33
ag33
asg70
I0
sg43
g171
sbsg173
(ima_dataset
TreatmentGroup
p2418
(dp2419
g68
(lp2420
g33
ag33
asg70
I1
sg43
g173
sbssg77
g49
sg36
I00
sg151
I2
sbsg20
(ima_dataset
MetaAnalyticUnit
p2421
(dp2422
g36
I00
sg63
(dp2423
g65
(ima_dataset
TreatmentGroup
p2424
(dp2425
g68
(lp2426
F6.0
aF80.0
asg70
I0
sg43
g71
sbsg72
(ima_dataset
TreatmentGroup
p2427
(dp2428
g68
(lp2429
F3.0
aF76.0
asg70
I1
sg43
g76
sbssg77
g49
sg78
(dp2430
g238
(dp2431
Vtx B-tx A
p2432
(dp2433
g242
Nsg243
Nsg244
Nsg245
Nsg246
Nsg247
Nsg248
NssVtx A-tx B
p2434
(dp2435
g242
Nsg243
Nsg244
Nsg245
Nsg246
Nsg247
Nsg248
Nsssg251
(dp2436
g65
(dp2437
g242
Nsg243
Nsg244
Nsg245
Nsg246
Nsg247
Nsg248
Nssg72
(dp2438
g242
Nsg243
Nsg244
Nsg245
Nsg246
Nsg247
Nsg248
Nsssg255
(dp2439
g65
(dp2440
g242
Nsg243
Nsg244
Nsg245
Nsg246
Nsg247
Nsg248
Nssg72
(dp2441
g242
Nsg243
Nsg244
Nsg245
Nsg246
Nsg247
Nsg248
Nsssg259
(dp2442
Vtx B-tx A
p2443
(dp2444
g242
F0.7080222801072305
sg243
F-1.99173005245202
sg244
F-0.6418538861723948
sg245
F2.0299725689040127
sg246
F0.5263157894736842
sg247
F0.1364591396419041
sg248
NssVtx A-tx B
p2445
(dp2446
g242
F1.99173005245202
sg243
F-0.7080222801072305
sg244
F0.6418538861723948
sg245
F7.328200973743487
sg246
F1.9000000000000001
sg247
F0.4926174941072738
sg248
Nsssg265
(dp2447
Vtx B-tx A
p2448
(dp2449
g242
Nsg243
Nsg244
Nsg245
Nsg246
Nsg247
Nsg248
NssVtx A-tx B
p2450
(dp2451
g242
Nsg243
Nsg244
Nsg245
Nsg246
Nsg247
Nsg248
Nsssg271
(dp2452
Vtx B-tx A
p2453
(dp2454
g242
Nsg243
Nsg244
Nsg245
Nsg246
Nsg247
Nsg248
NssVtx A-tx B
p2455
(dp2456
g242
Nsg243
Nsg244
Nsg245
Nsg246
Nsg247
Nsg248
Nsssg277
(dp2457
Vtx B-tx A
p2458
(dp2459
g242
Nsg243
Nsg244
Nsg245
Nsg246
Nsg247
Nsg248
NssVtx A-tx B
p2460
(dp2461
g242
Nsg243
Nsg244
Nsg245
Nsg246
Nsg247
Nsg248
Nsssg283
(dp2462
Vtx B-tx A
p2463
(dp2464
g242
Nsg243
Nsg244
Nsg245
Nsg246
Nsg247
Nsg248
NssVtx A-tx B
p2465
(dp2466
g242
Nsg243
Nsg244
Nsg245
Nsg246
Nsg247
Nsg248
Nsssg289
(dp2467
g65
(dp2468
g242
Nsg243
Nsg244
Nsg245
Nsg246
Nsg247
Nsg248
Nssg72
(dp2469
g242
Nsg243
Nsg244
Nsg245
Nsg246
Nsg247
Nsg248
Nsssg293
(dp2470
g65
(dp2471
g242
Nsg243
Nsg244
Nsg245
Nsg246
Nsg247
Nsg248
Nssg72
(dp2472
g242
Nsg243
Nsg244
Nsg245
Nsg246
Nsg247
Nsg248
Nsssg297
(dp2473
g65
(dp2474
g242
Nsg243
Nsg244
Nsg245
Nsg246
Nsg247
Nsg248
Nssg72
(dp2475
g242
Nsg243
Nsg244
Nsg245
Nsg246
Nsg247
Nsg248
Nsssg301
(dp2476
Vtx B-tx A
p2477
(dp2478
g242
F0.7435760842050816
sg243
F-2.102659141213415
sg244
F-0.6795415285041666
sg245
F2.1034441741803063
sg246
F0.5068493150684932
sg247
F0.12213123188092734
sg248
NssVtx A-tx B
p2479
(dp2480
g242
F2.102659141213415
sg243
F-0.7435760842050816
sg244
F0.6795415285041666
sg245
F8.187913808742568
sg246
F1.972972972972644
sg247
F0.4754107631070232
sg307
F95.0
sg308
F0.7260937567907465
sg248
F0.7260937567907465
ssssg151
I2
sbssg25
(dp2481
g27
(ima_dataset
MetaAnalyticUnit
p2482
(dp2483
g78
(dp2484
g313
(dp2485
Vtx B-tx A
p2486
(dp2487
g317
Nsg318
Nsg319
Nsg320
Nsg321
Nsg322
Nsg323
NssVtx A-tx B
p2488
(dp2489
g317
Nsg318
Nsg319
Nsg320
Nsg321
Nsg322
Nsg323
Nsssg326
(dp2490
g65
(dp2491
g317
Nsg318
Nsg319
Nsg320
Nsg321
Nsg322
Nsg323
Nssg72
(dp2492
g317
Nsg318
Nsg319
Nsg320
Nsg321
Nsg322
Nsg323
Nsssg330
(dp2493
g65
(dp2494
g317
Nsg318
Nsg319
Nsg320
Nsg321
Nsg322
Nsg323
Nssg72
(dp2495
g317
Nsg318
Nsg319
Nsg320
Nsg321
Nsg322
Nsg323
Nsssg334
(dp2496
Vtx B-tx A
p2497
(dp2498
g317
Nsg318
Nsg319
Nsg320
Nsg321
Nsg322
Nsg323
NssVtx A-tx B
p2499
(dp2500
g317
Nsg318
Nsg319
Nsg320
Nsg321
Nsg322
Nsg323
Nsssg340
(dp2501
Vtx B-tx A
p2502
(dp2503
g317
Nsg318
Nsg319
Nsg320
Nsg321
Nsg322
Nsg323
NssVtx A-tx B
p2504
(dp2505
g317
Nsg318
Nsg319
Nsg320
Nsg321
Nsg322
Nsg323
Nsssg346
(dp2506
Vtx B-tx A
p2507
(dp2508
g317
Nsg318
Nsg319
Nsg320
Nsg321
Nsg322
Nsg323
NssVtx A-tx B
p2509
(dp2510
g317
Nsg318
Nsg319
Nsg320
Nsg321
Nsg322
Nsg323
Nsssg352
(dp2511
Vtx B-tx A
p2512
(dp2513
g317
Nsg318
Nsg319
Nsg320
Nsg321
Nsg322
Nsg323
NssVtx A-tx B
p2514
(dp2515
g317
Nsg318
Nsg319
Nsg320
Nsg321
Nsg322
Nsg323
Nsssg358
(dp2516
g65
(dp2517
g317
Nsg318
Nsg319
Nsg320
Nsg321
Nsg322
Nsg323
Nssg72
(dp2518
g317
Nsg318
Nsg319
Nsg320
Nsg321
Nsg322
Nsg323
Nsssg362
(dp2519
g65
(dp2520
g317
Nsg318
Nsg319
Nsg320
Nsg321
Nsg322
Nsg323
Nssg72
(dp2521
g317
Nsg318
Nsg319
Nsg320
Nsg321
Nsg322
Nsg323
Nsssg366
(dp2522
g65
(dp2523
g317
Nsg318
Nsg319
Nsg320
Nsg321
Nsg322
Nsg323
Nssg72
(dp2524
g317
Nsg318
Nsg319
Nsg320
Nsg321
Nsg322
Nsg323
Nsssg370
(dp2525
Vtx B-tx A
p2526
(dp2527
g317
Nsg318
Nsg319
Nsg320
Nsg321
Nsg322
Nsg323
NssVtx A-tx B
p2528
(dp2529
g317
Nsg318
Nsg319
Nsg320
Nsg321
Nsg322
Nsg149
F95.0
sg150
Nsg323
Nssssg63
(dp2530
g65
(ima_dataset
TreatmentGroup
p2531
(dp2532
g68
(lp2533
g33
ag33
asg70
I0
sg43
g65
sbsg72
(ima_dataset
TreatmentGroup
p2534
(dp2535
g68
(lp2536
g33
ag33
asg70
I1
sg43
g72
sbssg77
g55
sg36
I00
sg151
I2
sbsssg383
I00
sg384
I1990
sg385
Nsg70
I9
sba(ima_dataset
Study
p2537
(dp2538
g42
I00
sg43
VMauracher
p2539
sg45
(dp2540
sg32
g33
sg47
(lp2541
g49
ag53
ag55
asg58
(dp2542
g7
(dp2543
g12
(ima_dataset
MetaAnalyticUnit
p2544
(dp2545
g36
I00
sg63
(dp2546
g65
(ima_dataset
TreatmentGroup
p2547
(dp2548
g68
(lp2549
F2.0
aF92.0
asg70
I0
sg43
g71
sbsg72
(ima_dataset
TreatmentGroup
p2550
(dp2551
g68
(lp2552
F2.0
aF93.0
asg70
I1
sg43
g76
sbssg77
g53
sg78
(dp2553
g80
(dp2554
Vtx B-tx A
p2555
(dp2556
g84
Nsg85
Nsg86
Nsg87
Nsg88
Nsg89
Nsg90
NssVtx A-tx B
p2557
(dp2558
g84
Nsg85
Nsg86
Nsg87
Nsg88
Nsg89
Nsg90
Nsssg93
(dp2559
g65
(dp2560
g84
Nsg85
Nsg86
Nsg87
Nsg88
Nsg89
Nsg90
Nssg72
(dp2561
g84
Nsg85
Nsg86
Nsg87
Nsg88
Nsg89
Nsg90
Nsssg97
(dp2562
g65
(dp2563
g84
Nsg85
Nsg86
Nsg87
Nsg88
Nsg89
Nsg90
Nssg72
(dp2564
g84
Nsg85
Nsg86
Nsg87
Nsg88
Nsg89
Nsg90
Nsssg101
(dp2565
Vtx B-tx A
p2566
(dp2567
g84
Nsg85
Nsg86
Nsg87
Nsg88
Nsg89
Nsg90
NssVtx A-tx B
p2568
(dp2569
g84
F1.9494696856374196
sg85
F-1.927847853428989
sg86
F0.010810916104215362
sg87
F7.02496115479111
sg88
F1.0108695652173911
sg89
F0.14546091506653783
sg90
Nsssg107
(dp2570
Vtx B-tx A
p2571
(dp2572
g84
Nsg85
Nsg86
Nsg87
Nsg88
Nsg89
Nsg90
NssVtx A-tx B
p2573
(dp2574
g84
Nsg85
Nsg86
Nsg87
Nsg88
Nsg89
Nsg90
Nsssg113
(dp2575
Vtx B-tx A
p2576
(dp2577
g84
Nsg85
Nsg86
Nsg87
Nsg88
Nsg89
Nsg90
NssVtx A-tx B
p2578
(dp2579
g84
Nsg85
Nsg86
Nsg87
Nsg88
Nsg89
Nsg90
Nsssg119
(dp2580
Vtx B-tx A
p2581
(dp2582
g84
Nsg85
Nsg86
Nsg87
Nsg88
Nsg89
Nsg90
NssVtx A-tx B
p2583
(dp2584
g84
Nsg85
Nsg86
Nsg87
Nsg88
Nsg89
Nsg90
Nsssg125
(dp2585
Vtx B-tx A
p2586
(dp2587
g84
Nsg85
Nsg86
Nsg87
Nsg88
Nsg89
Nsg90
NssVtx A-tx B
p2588
(dp2589
g84
Nsg85
Nsg86
Nsg87
Nsg88
Nsg89
Nsg90
Nsssg131
(dp2590
g65
(dp2591
g84
Nsg85
Nsg86
Nsg87
Nsg88
Nsg89
Nsg90
Nssg72
(dp2592
g84
Nsg85
Nsg86
Nsg87
Nsg88
Nsg89
Nsg90
Nsssg135
(dp2593
g65
(dp2594
g84
Nsg85
Nsg86
Nsg87
Nsg88
Nsg89
Nsg90
Nssg72
(dp2595
g84
Nsg85
Nsg86
Nsg87
Nsg88
Nsg89
Nsg90
Nsssg139
(dp2596
g65
(dp2597
g84
Nsg85
Nsg86
Nsg87
Nsg88
Nsg89
Nsg90
Nssg72
(dp2598
g84
Nsg85
Nsg86
Nsg87
Nsg88
Nsg89
Nsg90
Nsssg143
(dp2599
Vtx B-tx A
p2600
(dp2601
g84
F1.9704535147250544
sg85
F-1.9925531870982238
sg86
F-0.011049836186584727
sg87
F7.173929233250784
sg88
F0.9890109890109893
sg89
F0.13634686161258117
sg90
NssVtx A-tx B
p2602
(dp2603
g84
F1.992553187098224
sg85
F-1.9704535147250546
sg86
F0.011049836186584727
sg87
F7.3342355531673125
sg88
F1.0111111111111264
sg89
F0.13939362481582715
sg149
F95.0
sg150
F1.0109896745764133
sg90
F1.0109896745764133
ssssg151
I2
sbssg18
(dp2604
N(ima_dataset
MetaAnalyticUnit
p2605
(dp2606
g78
(dp2607
g156
(dp2608
S'tx B-tx A'
p2609
(dp2610
g160
Nsg161
Nsg162
Nsg163
Nsg164
Nsg165
Nsg166
NssS'tx A-tx B'
p2611
(dp2612
g160
Nsg161
Nsg162
Nsg163
Nsg164
Nsg165
Nsg166
Nsssg169
(dp2613
g171
(dp2614
g160
Nsg161
Nsg162
Nsg163
Nsg164
Nsg165
Nsg166
Nssg173
(dp2615
g160
Nsg161
Nsg162
Nsg163
Nsg164
Nsg165
Nsg166
Nsssg175
(dp2616
g171
(dp2617
g160
Nsg161
Nsg162
Nsg163
Nsg164
Nsg165
Nsg166
Nssg173
(dp2618
g160
Nsg161
Nsg162
Nsg163
Nsg164
Nsg165
Nsg166
Nsssg179
(dp2619
S'tx B-tx A'
p2620
(dp2621
g160
Nsg161
Nsg162
Nsg163
Nsg164
Nsg165
Nsg166
NssS'tx A-tx B'
p2622
(dp2623
g160
Nsg161
Nsg162
Nsg163
Nsg164
Nsg165
Nsg166
Nsssg185
(dp2624
S'tx B-tx A'
p2625
(dp2626
g160
Nsg161
Nsg162
Nsg163
Nsg164
Nsg165
Nsg166
NssS'tx A-tx B'
p2627
(dp2628
g160
Nsg161
Nsg162
Nsg163
Nsg164
Nsg165
Nsg166
Nsssg191
(dp2629
S'tx B-tx A'
p2630
(dp2631
g160
Nsg161
Nsg162
Nsg163
Nsg164
Nsg165
Nsg166
NssS'tx A-tx B'
p2632
(dp2633
g160
Nsg161
Nsg162
Nsg163
Nsg164
Nsg165
Nsg166
Nsssg197
(dp2634
S'tx B-tx A'
p2635
(dp2636
g160
Nsg161
Nsg162
Nsg163
Nsg164
Nsg165
Nsg166
NssS'tx A-tx B'
p2637
(dp2638
g160
Nsg161
Nsg162
Nsg163
Nsg164
Nsg165
Nsg166
Nsssg203
(dp2639
g171
(dp2640
g160
Nsg161
Nsg162
Nsg163
Nsg164
Nsg165
Nsg166
Nssg173
(dp2641
g160
Nsg161
Nsg162
Nsg163
Nsg164
Nsg165
Nsg166
Nsssg207
(dp2642
g171
(dp2643
g160
Nsg161
Nsg162
Nsg163
Nsg164
Nsg165
Nsg166
Nssg173
(dp2644
g160
Nsg161
Nsg162
Nsg163
Nsg164
Nsg165
Nsg166
Nsssg211
(dp2645
g171
(dp2646
g160
Nsg161
Nsg162
Nsg163
Nsg164
Nsg165
Nsg166
Nssg173
(dp2647
g160
Nsg161
Nsg162
Nsg163
Nsg164
Nsg165
Nsg166
Nsssg215
(dp2648
S'tx B-tx A'
p2649
(dp2650
g160
Nsg161
Nsg162
Nsg163
Nsg164
Nsg165
Nsg166
NssS'tx A-tx B'
p2651
(dp2652
g160
Nsg161
Nsg162
Nsg163
Nsg164
Nsg165
Nsg166
Nssssg63
(dp2653
g171
(ima_dataset
TreatmentGroup
p2654
(dp2655
g68
(lp2656
g33
ag33
asg70
I0
sg43
g171
sbsg173
(ima_dataset
TreatmentGroup
p2657
(dp2658
g68
(lp2659
g33
ag33
asg70
I1
sg43
g173
sbssg77
g49
sg36
I00
sg151
I2
sbsg20
(ima_dataset
MetaAnalyticUnit
p2660
(dp2661
g36
I00
sg63
(dp2662
g65
(ima_dataset
TreatmentGroup
p2663
(dp2664
g68
(lp2665
F0.0
aF92.0
asg70
I0
sg43
g71
sbsg72
(ima_dataset
TreatmentGroup
p2666
(dp2667
g68
(lp2668
F6.0
aF93.0
asg70
I1
sg43
g76
sbssg77
g49
sg78
(dp2669
g238
(dp2670
Vtx B-tx A
p2671
(dp2672
g242
Nsg243
Nsg244
Nsg245
Nsg246
Nsg247
Nsg248
NssVtx A-tx B
p2673
(dp2674
g242
Nsg243
Nsg244
Nsg245
Nsg246
Nsg247
Nsg248
Nsssg251
(dp2675
g65
(dp2676
g242
Nsg243
Nsg244
Nsg245
Nsg246
Nsg247
Nsg248
Nssg72
(dp2677
g242
Nsg243
Nsg244
Nsg245
Nsg246
Nsg247
Nsg248
Nsssg255
(dp2678
g65
(dp2679
g242
Nsg243
Nsg244
Nsg245
Nsg246
Nsg247
Nsg248
Nssg72
(dp2680
g242
Nsg243
Nsg244
Nsg245
Nsg246
Nsg247
Nsg248
Nsssg259
(dp2681
Vtx B-tx A
p2682
(dp2683
g242
F5.41637543440998
sg243
F-0.30786729772040333
sg244
F2.5542540683447883
sg245
F225.0618907568366
sg246
F12.861702127659568
sg247
F0.7350128494182561
sg248
NssVtx A-tx B
p2684
(dp2685
g242
F0.30786729772040333
sg243
F-5.41637543440998
sg244
F-2.5542540683447883
sg245
F1.3605204327944396
sg246
F0.07775020678246489
sg247
F0.004443222247165909
sg248
Nsssg265
(dp2686
Vtx B-tx A
p2687
(dp2688
g242
Nsg243
Nsg244
Nsg245
Nsg246
Nsg247
Nsg248
NssVtx A-tx B
p2689
(dp2690
g242
Nsg243
Nsg244
Nsg245
Nsg246
Nsg247
Nsg248
Nsssg271
(dp2691
Vtx B-tx A
p2692
(dp2693
g242
Nsg243
Nsg244
Nsg245
Nsg246
Nsg247
Nsg248
NssVtx A-tx B
p2694
(dp2695
g242
Nsg243
Nsg244
Nsg245
Nsg246
Nsg247
Nsg248
Nsssg277
(dp2696
Vtx B-tx A
p2697
(dp2698
g242
Nsg243
Nsg244
Nsg245
Nsg246
Nsg247
Nsg248
NssVtx A-tx B
p2699
(dp2700
g242
Nsg243
Nsg244
Nsg245
Nsg246
Nsg247
Nsg248
Nsssg283
(dp2701
Vtx B-tx A
p2702
(dp2703
g242
Nsg243
Nsg244
Nsg245
Nsg246
Nsg247
Nsg248
NssVtx A-tx B
p2704
(dp2705
g242
Nsg243
Nsg244
Nsg245
Nsg246
Nsg247
Nsg248
Nsssg289
(dp2706
g65
(dp2707
g242
Nsg243
Nsg244
Nsg245
Nsg246
Nsg247
Nsg248
Nssg72
(dp2708
g242
Nsg243
Nsg244
Nsg245
Nsg246
Nsg247
Nsg248
Nsssg293
(dp2709
g65
(dp2710
g242
Nsg243
Nsg244
Nsg245
Nsg246
Nsg247
Nsg248
Nssg72
(dp2711
g242
Nsg243
Nsg244
Nsg245
Nsg246
Nsg247
Nsg248
Nsssg297
(dp2712
g65
(dp2713
g242
Nsg243
Nsg244
Nsg245
Nsg246
Nsg247
Nsg248
Nssg72
(dp2714
g242
Nsg243
Nsg244
Nsg245
Nsg246
Nsg247
Nsg248
Nsssg301
(dp2715
Vtx B-tx A
p2716
(dp2717
g242
F5.511772047297303
sg243
F-0.27073363006460793
sg244
F2.620519208616347
sg245
F247.58947882968926
sg246
F13.742857142857138
sg247
F0.7628196615692863
sg248
NssVtx A-tx B
p2718
(dp2719
g242
F0.2707336300646084
sg243
F-5.511772047297303
sg244
F-2.620519208616347
sg245
F1.3109258326446045
sg246
F0.07276507276480698
sg247
F0.004038943838502839
sg307
F95.0
sg308
F1.4751561056666294
sg248
F1.4751561056666294
ssssg151
I2
sbssg25
(dp2720
g27
(ima_dataset
MetaAnalyticUnit
p2721
(dp2722
g78
(dp2723
g313
(dp2724
Vtx B-tx A
p2725
(dp2726
g317
Nsg318
Nsg319
Nsg320
Nsg321
Nsg322
Nsg323
NssVtx A-tx B
p2727
(dp2728
g317
Nsg318
Nsg319
Nsg320
Nsg321
Nsg322
Nsg323
Nsssg326
(dp2729
g65
(dp2730
g317
Nsg318
Nsg319
Nsg320
Nsg321
Nsg322
Nsg323
Nssg72
(dp2731
g317
Nsg318
Nsg319
Nsg320
Nsg321
Nsg322
Nsg323
Nsssg330
(dp2732
g65
(dp2733
g317
Nsg318
Nsg319
Nsg320
Nsg321
Nsg322
Nsg323
Nssg72
(dp2734
g317
Nsg318
Nsg319
Nsg320
Nsg321
Nsg322
Nsg323
Nsssg334
(dp2735
Vtx B-tx A
p2736
(dp2737
g317
Nsg318
Nsg319
Nsg320
Nsg321
Nsg322
Nsg323
NssVtx A-tx B
p2738
(dp2739
g317
Nsg318
Nsg319
Nsg320
Nsg321
Nsg322
Nsg323
Nsssg340
(dp2740
Vtx B-tx A
p2741
(dp2742
g317
Nsg318
Nsg319
Nsg320
Nsg321
Nsg322
Nsg323
NssVtx A-tx B
p2743
(dp2744
g317
Nsg318
Nsg319
Nsg320
Nsg321
Nsg322
Nsg323
Nsssg346
(dp2745
Vtx B-tx A
p2746
(dp2747
g317
Nsg318
Nsg319
Nsg320
Nsg321
Nsg322
Nsg323
NssVtx A-tx B
p2748
(dp2749
g317
Nsg318
Nsg319
Nsg320
Nsg321
Nsg322
Nsg323
Nsssg352
(dp2750
Vtx B-tx A
p2751
(dp2752
g317
Nsg318
Nsg319
Nsg320
Nsg321
Nsg322
Nsg323
NssVtx A-tx B
p2753
(dp2754
g317
Nsg318
Nsg319
Nsg320
Nsg321
Nsg322
Nsg323
Nsssg358
(dp2755
g65
(dp2756
g317
Nsg318
Nsg319
Nsg320
Nsg321
Nsg322
Nsg323
Nssg72
(dp2757
g317
Nsg318
Nsg319
Nsg320
Nsg321
Nsg322
Nsg323
Nsssg362
(dp2758
g65
(dp2759
g317
Nsg318
Nsg319
Nsg320
Nsg321
Nsg322
Nsg323
Nssg72
(dp2760
g317
Nsg318
Nsg319
Nsg320
Nsg321
Nsg322
Nsg323
Nsssg366
(dp2761
g65
(dp2762
g317
Nsg318
Nsg319
Nsg320
Nsg321
Nsg322
Nsg323
Nssg72
(dp2763
g317
Nsg318
Nsg319
Nsg320
Nsg321
Nsg322
Nsg323
Nsssg370
(dp2764
Vtx B-tx A
p2765
(dp2766
g317
Nsg318
Nsg319
Nsg320
Nsg321
Nsg322
Nsg323
NssVtx A-tx B
p2767
(dp2768
g317
Nsg318
Nsg319
Nsg320
Nsg321
Nsg322
Nsg149
F95.0
sg150
Nsg323
Nssssg63
(dp2769
g65
(ima_dataset
TreatmentGroup
p2770
(dp2771
g68
(lp2772
g33
ag33
asg70
I0
sg43
g65
sbsg72
(ima_dataset
TreatmentGroup
p2773
(dp2774
g68
(lp2775
g33
ag33
asg70
I1
sg43
g72
sbssg77
g55
sg36
I00
sg151
I2
sbsssg383
I00
sg384
I1989
sg385
Nsg70
I10
sba(ima_dataset
Study
p2776
(dp2777
g42
I00
sg43
VNordstrom
p2778
sg45
(dp2779
sg32
g33
sg47
(lp2780
g49
ag53
ag55
asg58
(dp2781
g7
(dp2782
g12
(ima_dataset
MetaAnalyticUnit
p2783
(dp2784
g36
I00
sg63
(dp2785
g65
(ima_dataset
TreatmentGroup
p2786
(dp2787
g68
(lp2788
F3.0
aF29.0
asg70
I0
sg43
g71
sbsg72
(ima_dataset
TreatmentGroup
p2789
(dp2790
g68
(lp2791
F5.0
aF25.0
asg70
I1
sg43
g76
sbssg77
g53
sg78
(dp2792
g80
(dp2793
Vtx B-tx A
p2794
(dp2795
g84
Nsg85
Nsg86
Nsg87
Nsg88
Nsg89
Nsg90
NssVtx A-tx B
p2796
(dp2797
g84
Nsg85
Nsg86
Nsg87
Nsg88
Nsg89
Nsg90
Nsssg93
(dp2798
g65
(dp2799
g84
Nsg85
Nsg86
Nsg87
Nsg88
Nsg89
Nsg90
Nssg72
(dp2800
g84
Nsg85
Nsg86
Nsg87
Nsg88
Nsg89
Nsg90
Nsssg97
(dp2801
g65
(dp2802
g84
Nsg85
Nsg86
Nsg87
Nsg88
Nsg89
Nsg90
Nssg72
(dp2803
g84
Nsg85
Nsg86
Nsg87
Nsg88
Nsg89
Nsg90
Nsssg101
(dp2804
Vtx B-tx A
p2805
(dp2806
g84
Nsg85
Nsg86
Nsg87
Nsg88
Nsg89
Nsg90
NssVtx A-tx B
p2807
(dp2808
g84
F0.6684047722418958
sg85
F-1.9868960300104235
sg86
F-0.6592456288842639
sg87
F1.9511223522187486
sg88
F0.5172413793103449
sg89
F0.13712038313057734
sg90
Nsssg107
(dp2809
Vtx B-tx A
p2810
(dp2811
g84
Nsg85
Nsg86
Nsg87
Nsg88
Nsg89
Nsg90
NssVtx A-tx B
p2812
(dp2813
g84
Nsg85
Nsg86
Nsg87
Nsg88
Nsg89
Nsg90
Nsssg113
(dp2814
Vtx B-tx A
p2815
(dp2816
g84
Nsg85
Nsg86
Nsg87
Nsg88
Nsg89
Nsg90
NssVtx A-tx B
p2817
(dp2818
g84
Nsg85
Nsg86
Nsg87
Nsg88
Nsg89
Nsg90
Nsssg119
(dp2819
Vtx B-tx A
p2820
(dp2821
g84
Nsg85
Nsg86
Nsg87
Nsg88
Nsg89
Nsg90
NssVtx A-tx B
p2822
(dp2823
g84
Nsg85
Nsg86
Nsg87
Nsg88
Nsg89
Nsg90
Nsssg125
(dp2824
Vtx B-tx A
p2825
(dp2826
g84
Nsg85
Nsg86
Nsg87
Nsg88
Nsg89
Nsg90
NssVtx A-tx B
p2827
(dp2828
g84
Nsg85
Nsg86
Nsg87
Nsg88
Nsg89
Nsg90
Nsssg131
(dp2829
g65
(dp2830
g84
Nsg85
Nsg86
Nsg87
Nsg88
Nsg89
Nsg90
Nssg72
(dp2831
g84
Nsg85
Nsg86
Nsg87
Nsg88
Nsg89
Nsg90
Nsssg135
(dp2832
g65
(dp2833
g84
Nsg85
Nsg86
Nsg87
Nsg88
Nsg89
Nsg90
Nssg72
(dp2834
g84
Nsg85
Nsg86
Nsg87
Nsg88
Nsg89
Nsg90
Nsssg139
(dp2835
g65
(dp2836
g84
Nsg85
Nsg86
Nsg87
Nsg88
Nsg89
Nsg90
Nssg72
(dp2837
g84
Nsg85
Nsg86
Nsg87
Nsg88
Nsg89
Nsg90
Nsssg143
(dp2838
Vtx B-tx A
p2839
(dp2840
g84
F2.3186993171658266
sg85
F-0.7723195406988625
sg86
F0.773189888233482
sg87
F10.16244758492658
sg88
F2.1666666666666674
sg89
F0.46194033526012646
sg90
NssVtx A-tx B
p2841
(dp2842
g84
F0.7723195406988628
sg85
F-2.3186993171658266
sg86
F-0.773189888233482
sg87
F2.164781734067497
sg88
F0.4615384615386839
sg89
F0.09840149153429076
sg149
F95.0
sg150
F0.7885397084452195
sg90
F0.7885397084452195
ssssg151
I2
sbssg18
(dp2843
N(ima_dataset
MetaAnalyticUnit
p2844
(dp2845
g78
(dp2846
g156
(dp2847
S'tx B-tx A'
p2848
(dp2849
g160
Nsg161
Nsg162
Nsg163
Nsg164
Nsg165
Nsg166
NssS'tx A-tx B'
p2850
(dp2851
g160
Nsg161
Nsg162
Nsg163
Nsg164
Nsg165
Nsg166
Nsssg169
(dp2852
g171
(dp2853
g160
Nsg161
Nsg162
Nsg163
Nsg164
Nsg165
Nsg166
Nssg173
(dp2854
g160
Nsg161
Nsg162
Nsg163
Nsg164
Nsg165
Nsg166
Nsssg175
(dp2855
g171
(dp2856
g160
Nsg161
Nsg162
Nsg163
Nsg164
Nsg165
Nsg166
Nssg173
(dp2857
g160
Nsg161
Nsg162
Nsg163
Nsg164
Nsg165
Nsg166
Nsssg179
(dp2858
S'tx B-tx A'
p2859
(dp2860
g160
Nsg161
Nsg162
Nsg163
Nsg164
Nsg165
Nsg166
NssS'tx A-tx B'
p2861
(dp2862
g160
Nsg161
Nsg162
Nsg163
Nsg164
Nsg165
Nsg166
Nsssg185
(dp2863
S'tx B-tx A'
p2864
(dp2865
g160
Nsg161
Nsg162
Nsg163
Nsg164
Nsg165
Nsg166
NssS'tx A-tx B'
p2866
(dp2867
g160
Nsg161
Nsg162
Nsg163
Nsg164
Nsg165
Nsg166
Nsssg191
(dp2868
S'tx B-tx A'
p2869
(dp2870
g160
Nsg161
Nsg162
Nsg163
Nsg164
Nsg165
Nsg166
NssS'tx A-tx B'
p2871
(dp2872
g160
Nsg161
Nsg162
Nsg163
Nsg164
Nsg165
Nsg166
Nsssg197
(dp2873
S'tx B-tx A'
p2874
(dp2875
g160
Nsg161
Nsg162
Nsg163
Nsg164
Nsg165
Nsg166
NssS'tx A-tx B'
p2876
(dp2877
g160
Nsg161
Nsg162
Nsg163
Nsg164
Nsg165
Nsg166
Nsssg203
(dp2878
g171
(dp2879
g160
Nsg161
Nsg162
Nsg163
Nsg164
Nsg165
Nsg166
Nssg173
(dp2880
g160
Nsg161
Nsg162
Nsg163
Nsg164
Nsg165
Nsg166
Nsssg207
(dp2881
g171
(dp2882
g160
Nsg161
Nsg162
Nsg163
Nsg164
Nsg165
Nsg166
Nssg173
(dp2883
g160
Nsg161
Nsg162
Nsg163
Nsg164
Nsg165
Nsg166
Nsssg211
(dp2884
g171
(dp2885
g160
Nsg161
Nsg162
Nsg163
Nsg164
Nsg165
Nsg166
Nssg173
(dp2886
g160
Nsg161
Nsg162
Nsg163
Nsg164
Nsg165
Nsg166
Nsssg215
(dp2887
S'tx B-tx A'
p2888
(dp2889
g160
Nsg161
Nsg162
Nsg163
Nsg164
Nsg165
Nsg166
NssS'tx A-tx B'
p2890
(dp2891
g160
Nsg161
Nsg162
Nsg163
Nsg164
Nsg165
Nsg166
Nssssg63
(dp2892
g171
(ima_dataset
TreatmentGroup
p2893
(dp2894
g68
(lp2895
g33
ag33
asg70
I0
sg43
g171
sbsg173
(ima_dataset
TreatmentGroup
p2896
(dp2897
g68
(lp2898
g33
ag33
asg70
I1
sg43
g173
sbssg77
g49
sg36
I00
sg151
I2
sbsg20
(ima_dataset
MetaAnalyticUnit
p2899
(dp2900
g36
I00
sg63
(dp2901
g65
(ima_dataset
TreatmentGroup
p2902
(dp2903
g68
(lp2904
F3.0
aF29.0
asg70
I0
sg43
g71
sbsg72
(ima_dataset
TreatmentGroup
p2905
(dp2906
g68
(lp2907
F4.0
aF27.0
asg70
I1
sg43
g76
sbssg77
g49
sg78
(dp2908
g238
(dp2909
Vtx B-tx A
p2910
(dp2911
g242
Nsg243
Nsg244
Nsg245
Nsg246
Nsg247
Nsg248
NssVtx A-tx B
p2912
(dp2913
g242
Nsg243
Nsg244
Nsg245
Nsg246
Nsg247
Nsg248
Nsssg251
(dp2914
g65
(dp2915
g242
Nsg243
Nsg244
Nsg245
Nsg246
Nsg247
Nsg248
Nssg72
(dp2916
g242
Nsg243
Nsg244
Nsg245
Nsg246
Nsg247
Nsg248
Nsssg255
(dp2917
g65
(dp2918
g242
Nsg243
Nsg244
Nsg245
Nsg246
Nsg247
Nsg248
Nssg72
(dp2919
g242
Nsg243
Nsg244
Nsg245
Nsg246
Nsg247
Nsg248
Nsssg259
(dp2920
Vtx B-tx A
p2921
(dp2922
g242
F1.7613217055542154
sg243
F-1.0430396326863642
sg244
F0.3591410364339256
sg245
F5.820124804317393
sg246
F1.4320987654320982
sg247
F0.352381940749925
sg248
NssVtx A-tx B
p2923
(dp2924
g242
F1.043039632686364
sg243
F-1.7613217055542152
sg244
F-0.3591410364339256
sg245
F2.837829878204996
sg246
F0.6982758620689657
sg247
F0.17181762137784332
sg248
Nsssg265
(dp2925
Vtx B-tx A
p2926
(dp2927
g242
Nsg243
Nsg244
Nsg245
Nsg246
Nsg247
Nsg248
NssVtx A-tx B
p2928
(dp2929
g242
Nsg243
Nsg244
Nsg245
Nsg246
Nsg247
Nsg248
Nsssg271
(dp2930
Vtx B-tx A
p2931
(dp2932
g242
Nsg243
Nsg244
Nsg245
Nsg246
Nsg247
Nsg248
NssVtx A-tx B
p2933
(dp2934
g242
Nsg243
Nsg244
Nsg245
Nsg246
Nsg247
Nsg248
Nsssg277
(dp2935
Vtx B-tx A
p2936
(dp2937
g242
Nsg243
Nsg244
Nsg245
Nsg246
Nsg247
Nsg248
NssVtx A-tx B
p2938
(dp2939
g242
Nsg243
Nsg244
Nsg245
Nsg246
Nsg247
Nsg248
Nsssg283
(dp2940
Vtx B-tx A
p2941
(dp2942
g242
Nsg243
Nsg244
Nsg245
Nsg246
Nsg247
Nsg248
NssVtx A-tx B
p2943
(dp2944
g242
Nsg243
Nsg244
Nsg245
Nsg246
Nsg247
Nsg248
Nsssg289
(dp2945
g65
(dp2946
g242
Nsg243
Nsg244
Nsg245
Nsg246
Nsg247
Nsg248
Nssg72
(dp2947
g242
Nsg243
Nsg244
Nsg245
Nsg246
Nsg247
Nsg248
Nsssg293
(dp2948
g65
(dp2949
g242
Nsg243
Nsg244
Nsg245
Nsg246
Nsg247
Nsg248
Nssg72
(dp2950
g242
Nsg243
Nsg244
Nsg245
Nsg246
Nsg247
Nsg248
Nsssg297
(dp2951
g65
(dp2952
g242
Nsg243
Nsg244
Nsg245
Nsg246
Nsg247
Nsg248
Nssg72
(dp2953
g242
Nsg243
Nsg244
Nsg245
Nsg246
Nsg247
Nsg248
Nsssg301
(dp2954
Vtx B-tx A
p2955
(dp2956
g242
F2.0089148532945442
sg243
F-1.1883460642063173
sg244
F0.4102843945441135
sg245
F7.455222945688903
sg246
F1.5072463768115945
sg247
F0.3047248428332217
sg248
NssVtx A-tx B
p2957
(dp2958
g242
F1.1883460642063177
sg243
F-2.0089148532945447
sg244
F-0.4102843945441135
sg245
F3.2816490795632003
sg246
F0.6634615384616136
sg247
F0.1341341509555807
sg307
F95.0
sg308
F0.815642772704103
sg248
F0.815642772704103
ssssg151
I2
sbssg25
(dp2959
g27
(ima_dataset
MetaAnalyticUnit
p2960
(dp2961
g78
(dp2962
g313
(dp2963
Vtx B-tx A
p2964
(dp2965
g317
Nsg318
Nsg319
Nsg320
Nsg321
Nsg322
Nsg323
NssVtx A-tx B
p2966
(dp2967
g317
Nsg318
Nsg319
Nsg320
Nsg321
Nsg322
Nsg323
Nsssg326
(dp2968
g65
(dp2969
g317
Nsg318
Nsg319
Nsg320
Nsg321
Nsg322
Nsg323
Nssg72
(dp2970
g317
Nsg318
Nsg319
Nsg320
Nsg321
Nsg322
Nsg323
Nsssg330
(dp2971
g65
(dp2972
g317
Nsg318
Nsg319
Nsg320
Nsg321
Nsg322
Nsg323
Nssg72
(dp2973
g317
Nsg318
Nsg319
Nsg320
Nsg321
Nsg322
Nsg323
Nsssg334
(dp2974
Vtx B-tx A
p2975
(dp2976
g317
Nsg318
Nsg319
Nsg320
Nsg321
Nsg322
Nsg323
NssVtx A-tx B
p2977
(dp2978
g317
Nsg318
Nsg319
Nsg320
Nsg321
Nsg322
Nsg323
Nsssg340
(dp2979
Vtx B-tx A
p2980
(dp2981
g317
Nsg318
Nsg319
Nsg320
Nsg321
Nsg322
Nsg323
NssVtx A-tx B
p2982
(dp2983
g317
Nsg318
Nsg319
Nsg320
Nsg321
Nsg322
Nsg323
Nsssg346
(dp2984
Vtx B-tx A
p2985
(dp2986
g317
Nsg318
Nsg319
Nsg320
Nsg321
Nsg322
Nsg323
NssVtx A-tx B
p2987
(dp2988
g317
Nsg318
Nsg319
Nsg320
Nsg321
Nsg322
Nsg323
Nsssg352
(dp2989
Vtx B-tx A
p2990
(dp2991
g317
Nsg318
Nsg319
Nsg320
Nsg321
Nsg322
Nsg323
NssVtx A-tx B
p2992
(dp2993
g317
Nsg318
Nsg319
Nsg320
Nsg321
Nsg322
Nsg323
Nsssg358
(dp2994
g65
(dp2995
g317
Nsg318
Nsg319
Nsg320
Nsg321
Nsg322
Nsg323
Nssg72
(dp2996
g317
Nsg318
Nsg319
Nsg320
Nsg321
Nsg322
Nsg323
Nsssg362
(dp2997
g65
(dp2998
g317
Nsg318
Nsg319
Nsg320
Nsg321
Nsg322
Nsg323
Nssg72
(dp2999
g317
Nsg318
Nsg319
Nsg320
Nsg321
Nsg322
Nsg323
Nsssg366
(dp3000
g65
(dp3001
g317
Nsg318
Nsg319
Nsg320
Nsg321
Nsg322
Nsg323
Nssg72
(dp3002
g317
Nsg318
Nsg319
Nsg320
Nsg321
Nsg322
Nsg323
Nsssg370
(dp3003
Vtx B-tx A
p3004
(dp3005
g317
Nsg318
Nsg319
Nsg320
Nsg321
Nsg322
Nsg323
NssVtx A-tx B
p3006
(dp3007
g317
Nsg318
Nsg319
Nsg320
Nsg321
Nsg322
Nsg149
F95.0
sg150
Nsg323
Nssssg63
(dp3008
g65
(ima_dataset
TreatmentGroup
p3009
(dp3010
g68
(lp3011
g33
ag33
asg70
I0
sg43
g65
sbsg72
(ima_dataset
TreatmentGroup
p3012
(dp3013
g68
(lp3014
g33
ag33
asg70
I1
sg43
g72
sbssg77
g55
sg36
I00
sg151
I2
sbsssg383
I00
sg384
I1990
sg385
Nsg70
I11
sba(ima_dataset
Study
p3015
(dp3016
g42
I00
sg43
VRozdzinski
p3017
sg45
(dp3018
sg32
g33
sg47
(lp3019
g49
ag53
ag55
asg58
(dp3020
g7
(dp3021
g12
(ima_dataset
MetaAnalyticUnit
p3022
(dp3023
g36
I00
sg63
(dp3024
g65
(ima_dataset
TreatmentGroup
p3025
(dp3026
g68
(lp3027
F3.0
aF71.0
asg70
I0
sg43
g71
sbsg72
(ima_dataset
TreatmentGroup
p3028
(dp3029
g68
(lp3030
F4.0
aF72.0
asg70
I1
sg43
g76
sbssg77
g53
sg78
(dp3031
g80
(dp3032
Vtx B-tx A
p3033
(dp3034
g84
Nsg85
Nsg86
Nsg87
Nsg88
Nsg89
Nsg90
NssVtx A-tx B
p3035
(dp3036
g84
Nsg85
Nsg86
Nsg87
Nsg88
Nsg89
Nsg90
Nsssg93
(dp3037
g65
(dp3038
g84
Nsg85
Nsg86
Nsg87
Nsg88
Nsg89
Nsg90
Nssg72
(dp3039
g84
Nsg85
Nsg86
Nsg87
Nsg88
Nsg89
Nsg90
Nsssg97
(dp3040
g65
(dp3041
g84
Nsg85
Nsg86
Nsg87
Nsg88
Nsg89
Nsg90
Nssg72
(dp3042
g84
Nsg85
Nsg86
Nsg87
Nsg88
Nsg89
Nsg90
Nsssg101
(dp3043
Vtx B-tx A
p3044
(dp3045
g84
Nsg85
Nsg86
Nsg87
Nsg88
Nsg89
Nsg90
NssVtx A-tx B
p3046
(dp3047
g84
F1.18691785225833
sg85
F-1.7343095132124118
sg86
F-0.27369583047704094
sg87
F3.27696553447024
sg88
F0.7605633802816902
sg89
F0.17652204435498442
sg90
Nsssg107
(dp3048
Vtx B-tx A
p3049
(dp3050
g84
Nsg85
Nsg86
Nsg87
Nsg88
Nsg89
Nsg90
NssVtx A-tx B
p3051
(dp3052
g84
Nsg85
Nsg86
Nsg87
Nsg88
Nsg89
Nsg90
Nsssg113
(dp3053
Vtx B-tx A
p3054
(dp3055
g84
Nsg85
Nsg86
Nsg87
Nsg88
Nsg89
Nsg90
NssVtx A-tx B
p3056
(dp3057
g84
Nsg85
Nsg86
Nsg87
Nsg88
Nsg89
Nsg90
Nsssg119
(dp3058
Vtx B-tx A
p3059
(dp3060
g84
Nsg85
Nsg86
Nsg87
Nsg88
Nsg89
Nsg90
NssVtx A-tx B
p3061
(dp3062
g84
Nsg85
Nsg86
Nsg87
Nsg88
Nsg89
Nsg90
Nsssg125
(dp3063
Vtx B-tx A
p3064
(dp3065
g84
Nsg85
Nsg86
Nsg87
Nsg88
Nsg89
Nsg90
NssVtx A-tx B
p3066
(dp3067
g84
Nsg85
Nsg86
Nsg87
Nsg88
Nsg89
Nsg90
Nsssg131
(dp3068
g65
(dp3069
g84
Nsg85
Nsg86
Nsg87
Nsg88
Nsg89
Nsg90
Nssg72
(dp3070
g84
Nsg85
Nsg86
Nsg87
Nsg88
Nsg89
Nsg90
Nsssg135
(dp3071
g65
(dp3072
g84
Nsg85
Nsg86
Nsg87
Nsg88
Nsg89
Nsg90
Nssg72
(dp3073
g84
Nsg85
Nsg86
Nsg87
Nsg88
Nsg89
Nsg90
Nsssg139
(dp3074
g65
(dp3075
g84
Nsg85
Nsg86
Nsg87
Nsg88
Nsg89
Nsg90
Nssg72
(dp3076
g84
Nsg85
Nsg86
Nsg87
Nsg88
Nsg89
Nsg90
Nsssg143
(dp3077
Vtx B-tx A
p3078
(dp3079
g84
F1.8219033934155555
sg85
F-1.246539248511994
sg86
F0.2876820724517808
sg87
F6.183617111748543
sg88
F1.3333333333333333
sg89
F0.2874980364486175
sg90
NssVtx A-tx B
p3080
(dp3081
g84
F1.2465392485119942
sg85
F-1.8219033934155557
sg86
F-0.2876820724517808
sg87
F3.4782846253516206
sg88
F0.7499999999998357
sg89
F0.16171764550162862
sg149
F95.0
sg150
F0.7827803638564368
sg90
F0.7827803638564368
ssssg151
I2
sbssg18
(dp3082
N(ima_dataset
MetaAnalyticUnit
p3083
(dp3084
g78
(dp3085
g156
(dp3086
S'tx B-tx A'
p3087
(dp3088
g160
Nsg161
Nsg162
Nsg163
Nsg164
Nsg165
Nsg166
NssS'tx A-tx B'
p3089
(dp3090
g160
Nsg161
Nsg162
Nsg163
Nsg164
Nsg165
Nsg166
Nsssg169
(dp3091
g171
(dp3092
g160
Nsg161
Nsg162
Nsg163
Nsg164
Nsg165
Nsg166
Nssg173
(dp3093
g160
Nsg161
Nsg162
Nsg163
Nsg164
Nsg165
Nsg166
Nsssg175
(dp3094
g171
(dp3095
g160
Nsg161
Nsg162
Nsg163
Nsg164
Nsg165
Nsg166
Nssg173
(dp3096
g160
Nsg161
Nsg162
Nsg163
Nsg164
Nsg165
Nsg166
Nsssg179
(dp3097
S'tx B-tx A'
p3098
(dp3099
g160
Nsg161
Nsg162
Nsg163
Nsg164
Nsg165
Nsg166
NssS'tx A-tx B'
p3100
(dp3101
g160
Nsg161
Nsg162
Nsg163
Nsg164
Nsg165
Nsg166
Nsssg185
(dp3102
S'tx B-tx A'
p3103
(dp3104
g160
Nsg161
Nsg162
Nsg163
Nsg164
Nsg165
Nsg166
NssS'tx A-tx B'
p3105
(dp3106
g160
Nsg161
Nsg162
Nsg163
Nsg164
Nsg165
Nsg166
Nsssg191
(dp3107
S'tx B-tx A'
p3108
(dp3109
g160
Nsg161
Nsg162
Nsg163
Nsg164
Nsg165
Nsg166
NssS'tx A-tx B'
p3110
(dp3111
g160
Nsg161
Nsg162
Nsg163
Nsg164
Nsg165
Nsg166
Nsssg197
(dp3112
S'tx B-tx A'
p3113
(dp3114
g160
Nsg161
Nsg162
Nsg163
Nsg164
Nsg165
Nsg166
NssS'tx A-tx B'
p3115
(dp3116
g160
Nsg161
Nsg162
Nsg163
Nsg164
Nsg165
Nsg166
Nsssg203
(dp3117
g171
(dp3118
g160
Nsg161
Nsg162
Nsg163
Nsg164
Nsg165
Nsg166
Nssg173
(dp3119
g160
Nsg161
Nsg162
Nsg163
Nsg164
Nsg165
Nsg166
Nsssg207
(dp3120
g171
(dp3121
g160
Nsg161
Nsg162
Nsg163
Nsg164
Nsg165
Nsg166
Nssg173
(dp3122
g160
Nsg161
Nsg162
Nsg163
Nsg164
Nsg165
Nsg166
Nsssg211
(dp3123
g171
(dp3124
g160
Nsg161
Nsg162
Nsg163
Nsg164
Nsg165
Nsg166
Nssg173
(dp3125
g160
Nsg161
Nsg162
Nsg163
Nsg164
Nsg165
Nsg166
Nsssg215
(dp3126
S'tx B-tx A'
p3127
(dp3128
g160
Nsg161
Nsg162
Nsg163
Nsg164
Nsg165
Nsg166
NssS'tx A-tx B'
p3129
(dp3130
g160
Nsg161
Nsg162
Nsg163
Nsg164
Nsg165
Nsg166
Nssssg63
(dp3131
g171
(ima_dataset
TreatmentGroup
p3132
(dp3133
g68
(lp3134
g33
ag33
asg70
I0
sg43
g171
sbsg173
(ima_dataset
TreatmentGroup
p3135
(dp3136
g68
(lp3137
g33
ag33
asg70
I1
sg43
g173
sbssg77
g49
sg36
I00
sg151
I2
sbsg20
(ima_dataset
MetaAnalyticUnit
p3138
(dp3139
g36
I00
sg63
(dp3140
g65
(ima_dataset
TreatmentGroup
p3141
(dp3142
g68
(lp3143
F16.0
aF71.0
asg70
I0
sg43
g71
sbsg72
(ima_dataset
TreatmentGroup
p3144
(dp3145
g68
(lp3146
F16.0
aF72.0
asg70
I1
sg43
g76
sbssg77
g49
sg78
(dp3147
g238
(dp3148
Vtx B-tx A
p3149
(dp3150
g242
Nsg243
Nsg244
Nsg245
Nsg246
Nsg247
Nsg248
NssVtx A-tx B
p3151
(dp3152
g242
Nsg243
Nsg244
Nsg245
Nsg246
Nsg247
Nsg248
Nsssg251
(dp3153
g65
(dp3154
g242
Nsg243
Nsg244
Nsg245
Nsg246
Nsg247
Nsg248
Nssg72
(dp3155
g242
Nsg243
Nsg244
Nsg245
Nsg246
Nsg247
Nsg248
Nsssg255
(dp3156
g65
(dp3157
g242
Nsg243
Nsg244
Nsg245
Nsg246
Nsg247
Nsg248
Nssg72
(dp3158
g242
Nsg243
Nsg244
Nsg245
Nsg246
Nsg247
Nsg248
Nsssg259
(dp3159
Vtx B-tx A
p3160
(dp3161
g242
F0.5965247767974925
sg243
F-0.6244972607469726
sg244
F-0.013986241974740077
sg245
F1.8157975211477462
sg246
F0.9861111111111109
sg247
F0.5355305931038702
sg248
NssVtx A-tx B
p3162
(dp3163
g242
F0.6244972607469726
sg243
F-0.5965247767974925
sg244
F0.013986241974740077
sg245
F1.8673069529121047
sg246
F1.0140845070422537
sg247
F0.5507221969153867
sg248
Nsssg265
(dp3164
Vtx B-tx A
p3165
(dp3166
g242
Nsg243
Nsg244
Nsg245
Nsg246
Nsg247
Nsg248
NssVtx A-tx B
p3167
(dp3168
g242
Nsg243
Nsg244
Nsg245
Nsg246
Nsg247
Nsg248
Nsssg271
(dp3169
Vtx B-tx A
p3170
(dp3171
g242
Nsg243
Nsg244
Nsg245
Nsg246
Nsg247
Nsg248
NssVtx A-tx B
p3172
(dp3173
g242
Nsg243
Nsg244
Nsg245
Nsg246
Nsg247
Nsg248
Nsssg277
(dp3174
Vtx B-tx A
p3175
(dp3176
g242
Nsg243
Nsg244
Nsg245
Nsg246
Nsg247
Nsg248
NssVtx A-tx B
p3177
(dp3178
g242
Nsg243
Nsg244
Nsg245
Nsg246
Nsg247
Nsg248
Nsssg283
(dp3179
Vtx B-tx A
p3180
(dp3181
g242
Nsg243
Nsg244
Nsg245
Nsg246
Nsg247
Nsg248
NssVtx A-tx B
p3182
(dp3183
g242
Nsg243
Nsg244
Nsg245
Nsg246
Nsg247
Nsg248
Nsssg289
(dp3184
g65
(dp3185
g242
Nsg243
Nsg244
Nsg245
Nsg246
Nsg247
Nsg248
Nssg72
(dp3186
g242
Nsg243
Nsg244
Nsg245
Nsg246
Nsg247
Nsg248
Nsssg293
(dp3187
g65
(dp3188
g242
Nsg243
Nsg244
Nsg245
Nsg246
Nsg247
Nsg248
Nssg72
(dp3189
g242
Nsg243
Nsg244
Nsg245
Nsg246
Nsg247
Nsg248
Nsssg297
(dp3190
g65
(dp3191
g242
Nsg243
Nsg244
Nsg245
Nsg246
Nsg247
Nsg248
Nssg72
(dp3192
g242
Nsg243
Nsg244
Nsg245
Nsg246
Nsg247
Nsg248
Nsssg301
(dp3193
Vtx B-tx A
p3194
(dp3195
g242
F0.7685083772918857
sg243
F-0.8045453882972426
sg244
F-0.018018505502678472
sg245
F2.1565470988757007
sg246
F0.982142857142857
sg247
F0.44729122417016703
sg248
NssVtx A-tx B
p3196
(dp3197
g242
F0.8045453882972428
sg243
F-0.7685083772918858
sg244
F0.018018505502678472
sg245
F2.2356799015115896
sg246
F1.0181818181818403
sg247
F0.4637042244619782
sg307
F95.0
sg308
F0.4012965998347868
sg248
F0.4012965998347868
ssssg151
I2
sbssg25
(dp3198
g27
(ima_dataset
MetaAnalyticUnit
p3199
(dp3200
g78
(dp3201
g313
(dp3202
Vtx B-tx A
p3203
(dp3204
g317
Nsg318
Nsg319
Nsg320
Nsg321
Nsg322
Nsg323
NssVtx A-tx B
p3205
(dp3206
g317
Nsg318
Nsg319
Nsg320
Nsg321
Nsg322
Nsg323
Nsssg326
(dp3207
g65
(dp3208
g317
Nsg318
Nsg319
Nsg320
Nsg321
Nsg322
Nsg323
Nssg72
(dp3209
g317
Nsg318
Nsg319
Nsg320
Nsg321
Nsg322
Nsg323
Nsssg330
(dp3210
g65
(dp3211
g317
Nsg318
Nsg319
Nsg320
Nsg321
Nsg322
Nsg323
Nssg72
(dp3212
g317
Nsg318
Nsg319
Nsg320
Nsg321
Nsg322
Nsg323
Nsssg334
(dp3213
Vtx B-tx A
p3214
(dp3215
g317
Nsg318
Nsg319
Nsg320
Nsg321
Nsg322
Nsg323
NssVtx A-tx B
p3216
(dp3217
g317
Nsg318
Nsg319
Nsg320
Nsg321
Nsg322
Nsg323
Nsssg340
(dp3218
Vtx B-tx A
p3219
(dp3220
g317
Nsg318
Nsg319
Nsg320
Nsg321
Nsg322
Nsg323
NssVtx A-tx B
p3221
(dp3222
g317
Nsg318
Nsg319
Nsg320
Nsg321
Nsg322
Nsg323
Nsssg346
(dp3223
Vtx B-tx A
p3224
(dp3225
g317
Nsg318
Nsg319
Nsg320
Nsg321
Nsg322
Nsg323
NssVtx A-tx B
p3226
(dp3227
g317
Nsg318
Nsg319
Nsg320
Nsg321
Nsg322
Nsg323
Nsssg352
(dp3228
Vtx B-tx A
p3229
(dp3230
g317
Nsg318
Nsg319
Nsg320
Nsg321
Nsg322
Nsg323
NssVtx A-tx B
p3231
(dp3232
g317
Nsg318
Nsg319
Nsg320
Nsg321
Nsg322
Nsg323
Nsssg358
(dp3233
g65
(dp3234
g317
Nsg318
Nsg319
Nsg320
Nsg321
Nsg322
Nsg323
Nssg72
(dp3235
g317
Nsg318
Nsg319
Nsg320
Nsg321
Nsg322
Nsg323
Nsssg362
(dp3236
g65
(dp3237
g317
Nsg318
Nsg319
Nsg320
Nsg321
Nsg322
Nsg323
Nssg72
(dp3238
g317
Nsg318
Nsg319
Nsg320
Nsg321
Nsg322
Nsg323
Nsssg366
(dp3239
g65
(dp3240
g317
Nsg318
Nsg319
Nsg320
Nsg321
Nsg322
Nsg323
Nssg72
(dp3241
g317
Nsg318
Nsg319
Nsg320
Nsg321
Nsg322
Nsg323
Nsssg370
(dp3242
Vtx B-tx A
p3243
(dp3244
g317
Nsg318
Nsg319
Nsg320
Nsg321
Nsg322
Nsg323
NssVtx A-tx B
p3245
(dp3246
g317
Nsg318
Nsg319
Nsg320
Nsg321
Nsg322
Nsg149
F95.0
sg150
Nsg323
Nssssg63
(dp3247
g65
(ima_dataset
TreatmentGroup
p3248
(dp3249
g68
(lp3250
g33
ag33
asg70
I0
sg43
g65
sbsg72
(ima_dataset
TreatmentGroup
p3251
(dp3252
g68
(lp3253
g33
ag33
asg70
I1
sg43
g72
sbssg77
g55
sg36
I00
sg151
I2
sbsssg383
I00
sg384
I1993
sg385
Nsg70
I12
sba(ima_dataset
Study
p3254
(dp3255
g42
I00
sg43
VTer Braak
p3256
sg45
(dp3257
sg32
g33
sg47
(lp3258
g49
ag53
ag55
asg58
(dp3259
g7
(dp3260
g12
(ima_dataset
MetaAnalyticUnit
p3261
(dp3262
g36
I00
sg63
(dp3263
g65
(ima_dataset
TreatmentGroup
p3264
(dp3265
g68
(lp3266
F14.0
aF69.0
asg70
I0
sg43
g71
sbsg72
(ima_dataset
TreatmentGroup
p3267
(dp3268
g68
(lp3269
F17.0
aF72.0
asg70
I1
sg43
g76
sbssg77
g53
sg78
(dp3270
g80
(dp3271
Vtx B-tx A
p3272
(dp3273
g84
Nsg85
Nsg86
Nsg87
Nsg88
Nsg89
Nsg90
NssVtx A-tx B
p3274
(dp3275
g84
Nsg85
Nsg86
Nsg87
Nsg88
Nsg89
Nsg90
Nsssg93
(dp3276
g65
(dp3277
g84
Nsg85
Nsg86
Nsg87
Nsg88
Nsg89
Nsg90
Nssg72
(dp3278
g84
Nsg85
Nsg86
Nsg87
Nsg88
Nsg89
Nsg90
Nsssg97
(dp3279
g65
(dp3280
g84
Nsg85
Nsg86
Nsg87
Nsg88
Nsg89
Nsg90
Nssg72
(dp3281
g84
Nsg85
Nsg86
Nsg87
Nsg88
Nsg89
Nsg90
Nsssg101
(dp3282
Vtx B-tx A
p3283
(dp3284
g84
Nsg85
Nsg86
Nsg87
Nsg88
Nsg89
Nsg90
NssVtx A-tx B
p3285
(dp3286
g84
F0.4739682814562953
sg85
F-0.7771610815006182
sg86
F-0.15159640002216146
sg87
F1.606356034945302
sg88
F0.8593350383631714
sg89
F0.4597092376123071
sg90
Nsssg107
(dp3287
Vtx B-tx A
p3288
(dp3289
g84
Nsg85
Nsg86
Nsg87
Nsg88
Nsg89
Nsg90
NssVtx A-tx B
p3290
(dp3291
g84
Nsg85
Nsg86
Nsg87
Nsg88
Nsg89
Nsg90
Nsssg113
(dp3292
Vtx B-tx A
p3293
(dp3294
g84
Nsg85
Nsg86
Nsg87
Nsg88
Nsg89
Nsg90
NssVtx A-tx B
p3295
(dp3296
g84
Nsg85
Nsg86
Nsg87
Nsg88
Nsg89
Nsg90
Nsssg119
(dp3297
Vtx B-tx A
p3298
(dp3299
g84
Nsg85
Nsg86
Nsg87
Nsg88
Nsg89
Nsg90
NssVtx A-tx B
p3300
(dp3301
g84
Nsg85
Nsg86
Nsg87
Nsg88
Nsg89
Nsg90
Nsssg125
(dp3302
Vtx B-tx A
p3303
(dp3304
g84
Nsg85
Nsg86
Nsg87
Nsg88
Nsg89
Nsg90
NssVtx A-tx B
p3305
(dp3306
g84
Nsg85
Nsg86
Nsg87
Nsg88
Nsg89
Nsg90
Nsssg131
(dp3307
g65
(dp3308
g84
Nsg85
Nsg86
Nsg87
Nsg88
Nsg89
Nsg90
Nssg72
(dp3309
g84
Nsg85
Nsg86
Nsg87
Nsg88
Nsg89
Nsg90
Nsssg135
(dp3310
g65
(dp3311
g84
Nsg85
Nsg86
Nsg87
Nsg88
Nsg89
Nsg90
Nssg72
(dp3312
g84
Nsg85
Nsg86
Nsg87
Nsg88
Nsg89
Nsg90
Nsssg139
(dp3313
g65
(dp3314
g84
Nsg85
Nsg86
Nsg87
Nsg88
Nsg89
Nsg90
Nssg72
(dp3315
g84
Nsg85
Nsg86
Nsg87
Nsg88
Nsg89
Nsg90
Nsssg143
(dp3316
Vtx B-tx A
p3317
(dp3318
g84
F0.9941856972331986
sg85
F-0.605873668351284
sg86
F0.19415601444095731
sg87
F2.702522773258032
sg88
F1.2142857142857142
sg89
F0.5455975470433475
sg90
NssVtx A-tx B
p3319
(dp3320
g84
F0.6058736683512841
sg85
F-0.9941856972331987
sg86
F-0.19415601444095731
sg87
F1.8328528150810517
sg88
F0.8235294117646709
sg89
F0.37002463398102897
sg149
F95.0
sg150
F0.40818591009976385
sg90
F0.40818591009976385
ssssg151
I2
sbssg18
(dp3321
N(ima_dataset
MetaAnalyticUnit
p3322
(dp3323
g78
(dp3324
g156
(dp3325
S'tx B-tx A'
p3326
(dp3327
g160
Nsg161
Nsg162
Nsg163
Nsg164
Nsg165
Nsg166
NssS'tx A-tx B'
p3328
(dp3329
g160
Nsg161
Nsg162
Nsg163
Nsg164
Nsg165
Nsg166
Nsssg169
(dp3330
g171
(dp3331
g160
Nsg161
Nsg162
Nsg163
Nsg164
Nsg165
Nsg166
Nssg173
(dp3332
g160
Nsg161
Nsg162
Nsg163
Nsg164
Nsg165
Nsg166
Nsssg175
(dp3333
g171
(dp3334
g160
Nsg161
Nsg162
Nsg163
Nsg164
Nsg165
Nsg166
Nssg173
(dp3335
g160
Nsg161
Nsg162
Nsg163
Nsg164
Nsg165
Nsg166
Nsssg179
(dp3336
S'tx B-tx A'
p3337
(dp3338
g160
Nsg161
Nsg162
Nsg163
Nsg164
Nsg165
Nsg166
NssS'tx A-tx B'
p3339
(dp3340
g160
Nsg161
Nsg162
Nsg163
Nsg164
Nsg165
Nsg166
Nsssg185
(dp3341
S'tx B-tx A'
p3342
(dp3343
g160
Nsg161
Nsg162
Nsg163
Nsg164
Nsg165
Nsg166
NssS'tx A-tx B'
p3344
(dp3345
g160
Nsg161
Nsg162
Nsg163
Nsg164
Nsg165
Nsg166
Nsssg191
(dp3346
S'tx B-tx A'
p3347
(dp3348
g160
Nsg161
Nsg162
Nsg163
Nsg164
Nsg165
Nsg166
NssS'tx A-tx B'
p3349
(dp3350
g160
Nsg161
Nsg162
Nsg163
Nsg164
Nsg165
Nsg166
Nsssg197
(dp3351
S'tx B-tx A'
p3352
(dp3353
g160
Nsg161
Nsg162
Nsg163
Nsg164
Nsg165
Nsg166
NssS'tx A-tx B'
p3354
(dp3355
g160
Nsg161
Nsg162
Nsg163
Nsg164
Nsg165
Nsg166
Nsssg203
(dp3356
g171
(dp3357
g160
Nsg161
Nsg162
Nsg163
Nsg164
Nsg165
Nsg166
Nssg173
(dp3358
g160
Nsg161
Nsg162
Nsg163
Nsg164
Nsg165
Nsg166
Nsssg207
(dp3359
g171
(dp3360
g160
Nsg161
Nsg162
Nsg163
Nsg164
Nsg165
Nsg166
Nssg173
(dp3361
g160
Nsg161
Nsg162
Nsg163
Nsg164
Nsg165
Nsg166
Nsssg211
(dp3362
g171
(dp3363
g160
Nsg161
Nsg162
Nsg163
Nsg164
Nsg165
Nsg166
Nssg173
(dp3364
g160
Nsg161
Nsg162
Nsg163
Nsg164
Nsg165
Nsg166
Nsssg215
(dp3365
S'tx B-tx A'
p3366
(dp3367
g160
Nsg161
Nsg162
Nsg163
Nsg164
Nsg165
Nsg166
NssS'tx A-tx B'
p3368
(dp3369
g160
Nsg161
Nsg162
Nsg163
Nsg164
Nsg165
Nsg166
Nssssg63
(dp3370
g171
(ima_dataset
TreatmentGroup
p3371
(dp3372
g68
(lp3373
g33
ag33
asg70
I0
sg43
g171
sbsg173
(ima_dataset
TreatmentGroup
p3374
(dp3375
g68
(lp3376
g33
ag33
asg70
I1
sg43
g173
sbssg77
g49
sg36
I00
sg151
I2
sbsg20
(ima_dataset
MetaAnalyticUnit
p3377
(dp3378
g36
I00
sg63
(dp3379
g65
(ima_dataset
TreatmentGroup
p3380
(dp3381
g68
(lp3382
F10.0
aF69.0
asg70
I0
sg43
g71
sbsg72
(ima_dataset
TreatmentGroup
p3383
(dp3384
g68
(lp3385
F8.0
aF72.0
asg70
I1
sg43
g76
sbssg77
g49
sg78
(dp3386
g238
(dp3387
Vtx B-tx A
p3388
(dp3389
g242
Nsg243
Nsg244
Nsg245
Nsg246
Nsg247
Nsg248
NssVtx A-tx B
p3390
(dp3391
g242
Nsg243
Nsg244
Nsg245
Nsg246
Nsg247
Nsg248
Nsssg251
(dp3392
g65
(dp3393
g242
Nsg243
Nsg244
Nsg245
Nsg246
Nsg247
Nsg248
Nssg72
(dp3394
g242
Nsg243
Nsg244
Nsg245
Nsg246
Nsg247
Nsg248
Nsssg255
(dp3395
g65
(dp3396
g242
Nsg243
Nsg244
Nsg245
Nsg246
Nsg247
Nsg248
Nssg72
(dp3397
g242
Nsg243
Nsg244
Nsg245
Nsg246
Nsg247
Nsg248
Nsssg259
(dp3398
Vtx B-tx A
p3399
(dp3400
g242
F0.6033775691140916
sg243
F-1.1347839005801035
sg244
F-0.265703165733006
sg245
F1.8282835376253588
sg246
F0.7666666666666664
sg247
F0.32149158797393357
sg248
NssVtx A-tx B
p3401
(dp3402
g242
F1.1347839005801037
sg243
F-0.6033775691140917
sg244
F0.265703165733006
sg245
F3.1105012927463593
sg246
F1.304347826086957
sg247
F0.5469611137552747
sg248
Nsssg265
(dp3403
Vtx B-tx A
p3404
(dp3405
g242
Nsg243
Nsg244
Nsg245
Nsg246
Nsg247
Nsg248
NssVtx A-tx B
p3406
(dp3407
g242
Nsg243
Nsg244
Nsg245
Nsg246
Nsg247
Nsg248
Nsssg271
(dp3408
Vtx B-tx A
p3409
(dp3410
g242
Nsg243
Nsg244
Nsg245
Nsg246
Nsg247
Nsg248
NssVtx A-tx B
p3411
(dp3412
g242
Nsg243
Nsg244
Nsg245
Nsg246
Nsg247
Nsg248
Nsssg277
(dp3413
Vtx B-tx A
p3414
(dp3415
g242
Nsg243
Nsg244
Nsg245
Nsg246
Nsg247
Nsg248
NssVtx A-tx B
p3416
(dp3417
g242
Nsg243
Nsg244
Nsg245
Nsg246
Nsg247
Nsg248
Nsssg283
(dp3418
Vtx B-tx A
p3419
(dp3420
g242
Nsg243
Nsg244
Nsg245
Nsg246
Nsg247
Nsg248
NssVtx A-tx B
p3421
(dp3422
g242
Nsg243
Nsg244
Nsg245
Nsg246
Nsg247
Nsg248
Nsssg289
(dp3423
g65
(dp3424
g242
Nsg243
Nsg244
Nsg245
Nsg246
Nsg247
Nsg248
Nssg72
(dp3425
g242
Nsg243
Nsg244
Nsg245
Nsg246
Nsg247
Nsg248
Nsssg293
(dp3426
g65
(dp3427
g242
Nsg243
Nsg244
Nsg245
Nsg246
Nsg247
Nsg248
Nssg72
(dp3428
g242
Nsg243
Nsg244
Nsg245
Nsg246
Nsg247
Nsg248
Nsssg297
(dp3429
g65
(dp3430
g242
Nsg243
Nsg244
Nsg245
Nsg246
Nsg247
Nsg248
Nssg72
(dp3431
g242
Nsg243
Nsg244
Nsg245
Nsg246
Nsg247
Nsg248
Nsssg301
(dp3432
Vtx B-tx A
p3433
(dp3434
g242
F0.6902271005766174
sg243
F-1.2992054821129413
sg244
F-0.30448919076816194
sg245
F1.9941683586067973
sg246
F0.7375000000000002
sg247
F0.27274841046018505
sg248
NssVtx A-tx B
p3435
(dp3436
g242
F1.2992054821129413
sg243
F-0.6902271005766175
sg244
F0.30448919076816194
sg245
F3.666382503604125
sg246
F1.3559322033896106
sg247
F0.5014621737846928
sg307
F95.0
sg308
F0.5075176376662912
sg248
F0.5075176376662912
ssssg151
I2
sbssg25
(dp3437
g27
(ima_dataset
MetaAnalyticUnit
p3438
(dp3439
g78
(dp3440
g313
(dp3441
Vtx B-tx A
p3442
(dp3443
g317
Nsg318
Nsg319
Nsg320
Nsg321
Nsg322
Nsg323
NssVtx A-tx B
p3444
(dp3445
g317
Nsg318
Nsg319
Nsg320
Nsg321
Nsg322
Nsg323
Nsssg326
(dp3446
g65
(dp3447
g317
Nsg318
Nsg319
Nsg320
Nsg321
Nsg322
Nsg323
Nssg72
(dp3448
g317
Nsg318
Nsg319
Nsg320
Nsg321
Nsg322
Nsg323
Nsssg330
(dp3449
g65
(dp3450
g317
Nsg318
Nsg319
Nsg320
Nsg321
Nsg322
Nsg323
Nssg72
(dp3451
g317
Nsg318
Nsg319
Nsg320
Nsg321
Nsg322
Nsg323
Nsssg334
(dp3452
Vtx B-tx A
p3453
(dp3454
g317
Nsg318
Nsg319
Nsg320
Nsg321
Nsg322
Nsg323
NssVtx A-tx B
p3455
(dp3456
g317
Nsg318
Nsg319
Nsg320
Nsg321
Nsg322
Nsg323
Nsssg340
(dp3457
Vtx B-tx A
p3458
(dp3459
g317
Nsg318
Nsg319
Nsg320
Nsg321
Nsg322
Nsg323
NssVtx A-tx B
p3460
(dp3461
g317
Nsg318
Nsg319
Nsg320
Nsg321
Nsg322
Nsg323
Nsssg346
(dp3462
Vtx B-tx A
p3463
(dp3464
g317
Nsg318
Nsg319
Nsg320
Nsg321
Nsg322
Nsg323
NssVtx A-tx B
p3465
(dp3466
g317
Nsg318
Nsg319
Nsg320
Nsg321
Nsg322
Nsg323
Nsssg352
(dp3467
Vtx B-tx A
p3468
(dp3469
g317
Nsg318
Nsg319
Nsg320
Nsg321
Nsg322
Nsg323
NssVtx A-tx B
p3470
(dp3471
g317
Nsg318
Nsg319
Nsg320
Nsg321
Nsg322
Nsg323
Nsssg358
(dp3472
g65
(dp3473
g317
Nsg318
Nsg319
Nsg320
Nsg321
Nsg322
Nsg323
Nssg72
(dp3474
g317
Nsg318
Nsg319
Nsg320
Nsg321
Nsg322
Nsg323
Nsssg362
(dp3475
g65
(dp3476
g317
Nsg318
Nsg319
Nsg320
Nsg321
Nsg322
Nsg323
Nssg72
(dp3477
g317
Nsg318
Nsg319
Nsg320
Nsg321
Nsg322
Nsg323
Nsssg366
(dp3478
g65
(dp3479
g317
Nsg318
Nsg319
Nsg320
Nsg321
Nsg322
Nsg323
Nssg72
(dp3480
g317
Nsg318
Nsg319
Nsg320
Nsg321
Nsg322
Nsg323
Nsssg370
(dp3481
Vtx B-tx A
p3482
(dp3483
g317
Nsg318
Nsg319
Nsg320
Nsg321
Nsg322
Nsg323
NssVtx A-tx B
p3484
(dp3485
g317
Nsg318
Nsg319
Nsg320
Nsg321
Nsg322
Nsg149
F95.0
sg150
Nsg323
Nssssg63
(dp3486
g65
(ima_dataset
TreatmentGroup
p3487
(dp3488
g68
(lp3489
g33
ag33
asg70
I0
sg43
g65
sbsg72
(ima_dataset
TreatmentGroup
p3490
(dp3491
g68
(lp3492
g33
ag33
asg70
I1
sg43
g72
sbssg77
g55
sg36
I00
sg151
I2
sbsssg383
I00
sg384
I1990
sg385
Nsg70
I13
sba(ima_dataset
Study
p3493
(dp3494
g42
I00
sg43
VTulkens
p3495
sg45
(dp3496
sg32
g33
sg47
(lp3497
g49
ag53
ag55
asg58
(dp3498
g7
(dp3499
g12
(ima_dataset
MetaAnalyticUnit
p3500
(dp3501
g36
I00
sg63
(dp3502
g65
(ima_dataset
TreatmentGroup
p3503
(dp3504
g68
(lp3505
F0.0
aF19.0
asg70
I0
sg43
g71
sbsg72
(ima_dataset
TreatmentGroup
p3506
(dp3507
g68
(lp3508
F0.0
aF19.0
asg70
I1
sg43
g76
sbssg77
g53
sg78
(dp3509
g80
(dp3510
Vtx B-tx A
p3511
(dp3512
g84
Nsg85
Nsg86
Nsg87
Nsg88
Nsg89
Nsg90
NssVtx A-tx B
p3513
(dp3514
g84
Nsg85
Nsg86
Nsg87
Nsg88
Nsg89
Nsg90
Nsssg93
(dp3515
g65
(dp3516
g84
Nsg85
Nsg86
Nsg87
Nsg88
Nsg89
Nsg90
Nssg72
(dp3517
g84
Nsg85
Nsg86
Nsg87
Nsg88
Nsg89
Nsg90
Nsssg97
(dp3518
g65
(dp3519
g84
Nsg85
Nsg86
Nsg87
Nsg88
Nsg89
Nsg90
Nssg72
(dp3520
g84
Nsg85
Nsg86
Nsg87
Nsg88
Nsg89
Nsg90
Nsssg101
(dp3521
Vtx B-tx A
p3522
(dp3523
g84
Nsg85
Nsg86
Nsg87
Nsg88
Nsg89
Nsg90
NssVtx A-tx B
p3524
(dp3525
g84
F3.870618736159257
sg85
F-3.870618736159257
sg86
F0.0
sg87
F47.97205894753966
sg88
F1.0
sg89
F0.020845467589655896
sg90
Nsssg107
(dp3526
Vtx B-tx A
p3527
(dp3528
g84
Nsg85
Nsg86
Nsg87
Nsg88
Nsg89
Nsg90
NssVtx A-tx B
p3529
(dp3530
g84
Nsg85
Nsg86
Nsg87
Nsg88
Nsg89
Nsg90
Nsssg113
(dp3531
Vtx B-tx A
p3532
(dp3533
g84
Nsg85
Nsg86
Nsg87
Nsg88
Nsg89
Nsg90
NssVtx A-tx B
p3534
(dp3535
g84
Nsg85
Nsg86
Nsg87
Nsg88
Nsg89
Nsg90
Nsssg119
(dp3536
Vtx B-tx A
p3537
(dp3538
g84
Nsg85
Nsg86
Nsg87
Nsg88
Nsg89
Nsg90
NssVtx A-tx B
p3539
(dp3540
g84
Nsg85
Nsg86
Nsg87
Nsg88
Nsg89
Nsg90
Nsssg125
(dp3541
Vtx B-tx A
p3542
(dp3543
g84
Nsg85
Nsg86
Nsg87
Nsg88
Nsg89
Nsg90
NssVtx A-tx B
p3544
(dp3545
g84
Nsg85
Nsg86
Nsg87
Nsg88
Nsg89
Nsg90
Nsssg131
(dp3546
g65
(dp3547
g84
Nsg85
Nsg86
Nsg87
Nsg88
Nsg89
Nsg90
Nssg72
(dp3548
g84
Nsg85
Nsg86
Nsg87
Nsg88
Nsg89
Nsg90
Nsssg135
(dp3549
g65
(dp3550
g84
Nsg85
Nsg86
Nsg87
Nsg88
Nsg89
Nsg90
Nssg72
(dp3551
g84
Nsg85
Nsg86
Nsg87
Nsg88
Nsg89
Nsg90
Nsssg139
(dp3552
g65
(dp3553
g84
Nsg85
Nsg86
Nsg87
Nsg88
Nsg89
Nsg90
Nssg72
(dp3554
g84
Nsg85
Nsg86
Nsg87
Nsg88
Nsg89
Nsg90
Nsssg143
(dp3555
Vtx B-tx A
p3556
(dp3557
g84
F3.9698653704197504
sg85
F-3.9698653704197504
sg86
F0.0
sg87
F52.97739803468354
sg88
F1.0
sg89
F0.018875974228581675
sg90
NssVtx A-tx B
p3558
(dp3559
g84
F3.969865370419751
sg85
F-3.969865370419751
sg86
F0.0
sg87
F52.97739803469676
sg88
F1.0
sg89
F0.018875974228576967
sg149
F95.0
sg150
F2.0254787341673333
sg90
F2.0254787341673333
ssssg151
I2
sbssg18
(dp3560
N(ima_dataset
MetaAnalyticUnit
p3561
(dp3562
g78
(dp3563
g156
(dp3564
S'tx B-tx A'
p3565
(dp3566
g160
Nsg161
Nsg162
Nsg163
Nsg164
Nsg165
Nsg166
NssS'tx A-tx B'
p3567
(dp3568
g160
Nsg161
Nsg162
Nsg163
Nsg164
Nsg165
Nsg166
Nsssg169
(dp3569
g171
(dp3570
g160
Nsg161
Nsg162
Nsg163
Nsg164
Nsg165
Nsg166
Nssg173
(dp3571
g160
Nsg161
Nsg162
Nsg163
Nsg164
Nsg165
Nsg166
Nsssg175
(dp3572
g171
(dp3573
g160
Nsg161
Nsg162
Nsg163
Nsg164
Nsg165
Nsg166
Nssg173
(dp3574
g160
Nsg161
Nsg162
Nsg163
Nsg164
Nsg165
Nsg166
Nsssg179
(dp3575
S'tx B-tx A'
p3576
(dp3577
g160
Nsg161
Nsg162
Nsg163
Nsg164
Nsg165
Nsg166
NssS'tx A-tx B'
p3578
(dp3579
g160
Nsg161
Nsg162
Nsg163
Nsg164
Nsg165
Nsg166
Nsssg185
(dp3580
S'tx B-tx A'
p3581
(dp3582
g160
Nsg161
Nsg162
Nsg163
Nsg164
Nsg165
Nsg166
NssS'tx A-tx B'
p3583
(dp3584
g160
Nsg161
Nsg162
Nsg163
Nsg164
Nsg165
Nsg166
Nsssg191
(dp3585
S'tx B-tx A'
p3586
(dp3587
g160
Nsg161
Nsg162
Nsg163
Nsg164
Nsg165
Nsg166
NssS'tx A-tx B'
p3588
(dp3589
g160
Nsg161
Nsg162
Nsg163
Nsg164
Nsg165
Nsg166
Nsssg197
(dp3590
S'tx B-tx A'
p3591
(dp3592
g160
Nsg161
Nsg162
Nsg163
Nsg164
Nsg165
Nsg166
NssS'tx A-tx B'
p3593
(dp3594
g160
Nsg161
Nsg162
Nsg163
Nsg164
Nsg165
Nsg166
Nsssg203
(dp3595
g171
(dp3596
g160
Nsg161
Nsg162
Nsg163
Nsg164
Nsg165
Nsg166
Nssg173
(dp3597
g160
Nsg161
Nsg162
Nsg163
Nsg164
Nsg165
Nsg166
Nsssg207
(dp3598
g171
(dp3599
g160
Nsg161
Nsg162
Nsg163
Nsg164
Nsg165
Nsg166
Nssg173
(dp3600
g160
Nsg161
Nsg162
Nsg163
Nsg164
Nsg165
Nsg166
Nsssg211
(dp3601
g171
(dp3602
g160
Nsg161
Nsg162
Nsg163
Nsg164
Nsg165
Nsg166
Nssg173
(dp3603
g160
Nsg161
Nsg162
Nsg163
Nsg164
Nsg165
Nsg166
Nsssg215
(dp3604
S'tx B-tx A'
p3605
(dp3606
g160
Nsg161
Nsg162
Nsg163
Nsg164
Nsg165
Nsg166
NssS'tx A-tx B'
p3607
(dp3608
g160
Nsg161
Nsg162
Nsg163
Nsg164
Nsg165
Nsg166
Nssssg63
(dp3609
g171
(ima_dataset
TreatmentGroup
p3610
(dp3611
g68
(lp3612
g33
ag33
asg70
I0
sg43
g171
sbsg173
(ima_dataset
TreatmentGroup
p3613
(dp3614
g68
(lp3615
g33
ag33
asg70
I1
sg43
g173
sbssg77
g49
sg36
I00
sg151
I2
sbsg20
(ima_dataset
MetaAnalyticUnit
p3616
(dp3617
g36
I00
sg63
(dp3618
g65
(ima_dataset
TreatmentGroup
p3619
(dp3620
g68
(lp3621
F0.0
aF19.0
asg70
I0
sg43
g71
sbsg72
(ima_dataset
TreatmentGroup
p3622
(dp3623
g68
(lp3624
F0.0
aF19.0
asg70
I1
sg43
g76
sbssg77
g49
sg78
(dp3625
g238
(dp3626
Vtx B-tx A
p3627
(dp3628
g242
Nsg243
Nsg244
Nsg245
Nsg246
Nsg247
Nsg248
NssVtx A-tx B
p3629
(dp3630
g242
Nsg243
Nsg244
Nsg245
Nsg246
Nsg247
Nsg248
Nsssg251
(dp3631
g65
(dp3632
g242
Nsg243
Nsg244
Nsg245
Nsg246
Nsg247
Nsg248
Nssg72
(dp3633
g242
Nsg243
Nsg244
Nsg245
Nsg246
Nsg247
Nsg248
Nsssg255
(dp3634
g65
(dp3635
g242
Nsg243
Nsg244
Nsg245
Nsg246
Nsg247
Nsg248
Nssg72
(dp3636
g242
Nsg243
Nsg244
Nsg245
Nsg246
Nsg247
Nsg248
Nsssg259
(dp3637
Vtx B-tx A
p3638
(dp3639
g242
F3.870618736159257
sg243
F-3.870618736159257
sg244
F0.0
sg245
F47.97205894753966
sg246
F1.0
sg247
F0.020845467589655896
sg248
NssVtx A-tx B
p3640
(dp3641
g242
F3.870618736159257
sg243
F-3.870618736159257
sg244
F0.0
sg245
F47.97205894753966
sg246
F1.0
sg247
F0.020845467589655896
sg248
Nsssg265
(dp3642
Vtx B-tx A
p3643
(dp3644
g242
Nsg243
Nsg244
Nsg245
Nsg246
Nsg247
Nsg248
NssVtx A-tx B
p3645
(dp3646
g242
Nsg243
Nsg244
Nsg245
Nsg246
Nsg247
Nsg248
Nsssg271
(dp3647
Vtx B-tx A
p3648
(dp3649
g242
Nsg243
Nsg244
Nsg245
Nsg246
Nsg247
Nsg248
NssVtx A-tx B
p3650
(dp3651
g242
Nsg243
Nsg244
Nsg245
Nsg246
Nsg247
Nsg248
Nsssg277
(dp3652
Vtx B-tx A
p3653
(dp3654
g242
Nsg243
Nsg244
Nsg245
Nsg246
Nsg247
Nsg248
NssVtx A-tx B
p3655
(dp3656
g242
Nsg243
Nsg244
Nsg245
Nsg246
Nsg247
Nsg248
Nsssg283
(dp3657
Vtx B-tx A
p3658
(dp3659
g242
Nsg243
Nsg244
Nsg245
Nsg246
Nsg247
Nsg248
NssVtx A-tx B
p3660
(dp3661
g242
Nsg243
Nsg244
Nsg245
Nsg246
Nsg247
Nsg248
Nsssg289
(dp3662
g65
(dp3663
g242
Nsg243
Nsg244
Nsg245
Nsg246
Nsg247
Nsg248
Nssg72
(dp3664
g242
Nsg243
Nsg244
Nsg245
Nsg246
Nsg247
Nsg248
Nsssg293
(dp3665
g65
(dp3666
g242
Nsg243
Nsg244
Nsg245
Nsg246
Nsg247
Nsg248
Nssg72
(dp3667
g242
Nsg243
Nsg244
Nsg245
Nsg246
Nsg247
Nsg248
Nsssg297
(dp3668
g65
(dp3669
g242
Nsg243
Nsg244
Nsg245
Nsg246
Nsg247
Nsg248
Nssg72
(dp3670
g242
Nsg243
Nsg244
Nsg245
Nsg246
Nsg247
Nsg248
Nsssg301
(dp3671
Vtx B-tx A
p3672
(dp3673
g242
F3.9698653704197504
sg243
F-3.9698653704197504
sg244
F0.0
sg245
F52.97739803468354
sg246
F1.0
sg247
F0.018875974228581675
sg248
NssVtx A-tx B
p3674
(dp3675
g242
F3.969865370419751
sg243
F-3.969865370419751
sg244
F0.0
sg245
F52.97739803469676
sg246
F1.0
sg247
F0.018875974228576967
sg307
F95.0
sg308
F2.0254787341673333
sg248
F2.0254787341673333
ssssg151
I2
sbssg25
(dp3676
g27
(ima_dataset
MetaAnalyticUnit
p3677
(dp3678
g78
(dp3679
g313
(dp3680
Vtx B-tx A
p3681
(dp3682
g317
Nsg318
Nsg319
Nsg320
Nsg321
Nsg322
Nsg323
NssVtx A-tx B
p3683
(dp3684
g317
Nsg318
Nsg319
Nsg320
Nsg321
Nsg322
Nsg323
Nsssg326
(dp3685
g65
(dp3686
g317
Nsg318
Nsg319
Nsg320
Nsg321
Nsg322
Nsg323
Nssg72
(dp3687
g317
Nsg318
Nsg319
Nsg320
Nsg321
Nsg322
Nsg323
Nsssg330
(dp3688
g65
(dp3689
g317
Nsg318
Nsg319
Nsg320
Nsg321
Nsg322
Nsg323
Nssg72
(dp3690
g317
Nsg318
Nsg319
Nsg320
Nsg321
Nsg322
Nsg323
Nsssg334
(dp3691
Vtx B-tx A
p3692
(dp3693
g317
Nsg318
Nsg319
Nsg320
Nsg321
Nsg322
Nsg323
NssVtx A-tx B
p3694
(dp3695
g317
Nsg318
Nsg319
Nsg320
Nsg321
Nsg322
Nsg323
Nsssg340
(dp3696
Vtx B-tx A
p3697
(dp3698
g317
Nsg318
Nsg319
Nsg320
Nsg321
Nsg322
Nsg323
NssVtx A-tx B
p3699
(dp3700
g317
Nsg318
Nsg319
Nsg320
Nsg321
Nsg322
Nsg323
Nsssg346
(dp3701
Vtx B-tx A
p3702
(dp3703
g317
Nsg318
Nsg319
Nsg320
Nsg321
Nsg322
Nsg323
NssVtx A-tx B
p3704
(dp3705
g317
Nsg318
Nsg319
Nsg320
Nsg321
Nsg322
Nsg323
Nsssg352
(dp3706
Vtx B-tx A
p3707
(dp3708
g317
Nsg318
Nsg319
Nsg320
Nsg321
Nsg322
Nsg323
NssVtx A-tx B
p3709
(dp3710
g317
Nsg318
Nsg319
Nsg320
Nsg321
Nsg322
Nsg323
Nsssg358
(dp3711
g65
(dp3712
g317
Nsg318
Nsg319
Nsg320
Nsg321
Nsg322
Nsg323
Nssg72
(dp3713
g317
Nsg318
Nsg319
Nsg320
Nsg321
Nsg322
Nsg323
Nsssg362
(dp3714
g65
(dp3715
g317
Nsg318
Nsg319
Nsg320
Nsg321
Nsg322
Nsg323
Nssg72
(dp3716
g317
Nsg318
Nsg319
Nsg320
Nsg321
Nsg322
Nsg323
Nsssg366
(dp3717
g65
(dp3718
g317
Nsg318
Nsg319
Nsg320
Nsg321
Nsg322
Nsg323
Nssg72
(dp3719
g317
Nsg318
Nsg319
Nsg320
Nsg321
Nsg322
Nsg323
Nsssg370
(dp3720
Vtx B-tx A
p3721
(dp3722
g317
Nsg318
Nsg319
Nsg320
Nsg321
Nsg322
Nsg323
NssVtx A-tx B
p3723
(dp3724
g317
Nsg318
Nsg319
Nsg320
Nsg321
Nsg322
Nsg149
F95.0
sg150
Nsg323
Nssssg63
(dp3725
g65
(ima_dataset
TreatmentGroup
p3726
(dp3727
g68
(lp3728
g33
ag33
asg70
I0
sg43
g65
sbsg72
(ima_dataset
TreatmentGroup
p3729
(dp3730
g68
(lp3731
g33
ag33
asg70
I1
sg43
g72
sbssg77
g55
sg36
I00
sg151
I2
sbsssg383
I00
sg384
I1988
sg385
Nsg70
I14
sba(ima_dataset
Study
p3732
(dp3733
g42
I00
sg43
VVan der Auwera
p3734
sg45
(dp3735
sg32
g33
sg47
(lp3736
g49
ag53
ag55
asg58
(dp3737
g7
(dp3738
g12
(ima_dataset
MetaAnalyticUnit
p3739
(dp3740
g36
I00
sg63
(dp3741
g65
(ima_dataset
TreatmentGroup
p3742
(dp3743
g68
(lp3744
F1.0
aF30.0
asg70
I0
sg43
g71
sbsg72
(ima_dataset
TreatmentGroup
p3745
(dp3746
g68
(lp3747
F3.0
aF30.0
asg70
I1
sg43
g76
sbssg77
g53
sg78
(dp3748
g80
(dp3749
Vtx B-tx A
p3750
(dp3751
g84
Nsg85
Nsg86
Nsg87
Nsg88
Nsg89
Nsg90
NssVtx A-tx B
p3752
(dp3753
g84
Nsg85
Nsg86
Nsg87
Nsg88
Nsg89
Nsg90
Nsssg93
(dp3754
g65
(dp3755
g84
Nsg85
Nsg86
Nsg87
Nsg88
Nsg89
Nsg90
Nssg72
(dp3756
g84
Nsg85
Nsg86
Nsg87
Nsg88
Nsg89
Nsg90
Nsssg97
(dp3757
g65
(dp3758
g84
Nsg85
Nsg86
Nsg87
Nsg88
Nsg89
Nsg90
Nssg72
(dp3759
g84
Nsg85
Nsg86
Nsg87
Nsg88
Nsg89
Nsg90
Nsssg101
(dp3760
Vtx B-tx A
p3761
(dp3762
g84
Nsg85
Nsg86
Nsg87
Nsg88
Nsg89
Nsg90
NssVtx A-tx B
p3763
(dp3764
g84
F1.1072543980439158
sg85
F-3.304478975380136
sg86
F-1.09861228866811
sg87
F3.026038680630097
sg88
F0.3333333333333332
sg89
F0.03671833801145428
sg90
Nsssg107
(dp3765
Vtx B-tx A
p3766
(dp3767
g84
Nsg85
Nsg86
Nsg87
Nsg88
Nsg89
Nsg90
NssVtx A-tx B
p3768
(dp3769
g84
Nsg85
Nsg86
Nsg87
Nsg88
Nsg89
Nsg90
Nsssg113
(dp3770
Vtx B-tx A
p3771
(dp3772
g84
Nsg85
Nsg86
Nsg87
Nsg88
Nsg89
Nsg90
NssVtx A-tx B
p3773
(dp3774
g84
Nsg85
Nsg86
Nsg87
Nsg88
Nsg89
Nsg90
Nsssg119
(dp3775
Vtx B-tx A
p3776
(dp3777
g84
Nsg85
Nsg86
Nsg87
Nsg88
Nsg89
Nsg90
NssVtx A-tx B
p3778
(dp3779
g84
Nsg85
Nsg86
Nsg87
Nsg88
Nsg89
Nsg90
Nsssg125
(dp3780
Vtx B-tx A
p3781
(dp3782
g84
Nsg85
Nsg86
Nsg87
Nsg88
Nsg89
Nsg90
NssVtx A-tx B
p3783
(dp3784
g84
Nsg85
Nsg86
Nsg87
Nsg88
Nsg89
Nsg90
Nsssg131
(dp3785
g65
(dp3786
g84
Nsg85
Nsg86
Nsg87
Nsg88
Nsg89
Nsg90
Nssg72
(dp3787
g84
Nsg85
Nsg86
Nsg87
Nsg88
Nsg89
Nsg90
Nsssg135
(dp3788
g65
(dp3789
g84
Nsg85
Nsg86
Nsg87
Nsg88
Nsg89
Nsg90
Nssg72
(dp3790
g84
Nsg85
Nsg86
Nsg87
Nsg88
Nsg89
Nsg90
Nsssg139
(dp3791
g65
(dp3792
g84
Nsg85
Nsg86
Nsg87
Nsg88
Nsg89
Nsg90
Nssg72
(dp3793
g84
Nsg85
Nsg86
Nsg87
Nsg88
Nsg89
Nsg90
Nsssg143
(dp3794
Vtx B-tx A
p3795
(dp3796
g84
F3.493147972033936
sg85
F-1.153005466733426
sg86
F1.170071252650255
sg87
F32.88931957322481
sg88
F3.2222222222222237
sg89
F0.3156865567336118
sg90
NssVtx A-tx B
p3797
(dp3798
g84
F1.1530054667334264
sg85
F-3.4931479720339365
sg86
F-1.170071252650255
sg87
F3.1676990314174565
sg88
F0.31034482758628595
sg89
F0.03040500724794671
sg149
F95.0
sg150
F1.1852650036979324
sg90
F1.1852650036979324
ssssg151
I2
sbssg18
(dp3799
N(ima_dataset
MetaAnalyticUnit
p3800
(dp3801
g78
(dp3802
g156
(dp3803
S'tx B-tx A'
p3804
(dp3805
g160
Nsg161
Nsg162
Nsg163
Nsg164
Nsg165
Nsg166
NssS'tx A-tx B'
p3806
(dp3807
g160
Nsg161
Nsg162
Nsg163
Nsg164
Nsg165
Nsg166
Nsssg169
(dp3808
g171
(dp3809
g160
Nsg161
Nsg162
Nsg163
Nsg164
Nsg165
Nsg166
Nssg173
(dp3810
g160
Nsg161
Nsg162
Nsg163
Nsg164
Nsg165
Nsg166
Nsssg175
(dp3811
g171
(dp3812
g160
Nsg161
Nsg162
Nsg163
Nsg164
Nsg165
Nsg166
Nssg173
(dp3813
g160
Nsg161
Nsg162
Nsg163
Nsg164
Nsg165
Nsg166
Nsssg179
(dp3814
S'tx B-tx A'
p3815
(dp3816
g160
Nsg161
Nsg162
Nsg163
Nsg164
Nsg165
Nsg166
NssS'tx A-tx B'
p3817
(dp3818
g160
Nsg161
Nsg162
Nsg163
Nsg164
Nsg165
Nsg166
Nsssg185
(dp3819
S'tx B-tx A'
p3820
(dp3821
g160
Nsg161
Nsg162
Nsg163
Nsg164
Nsg165
Nsg166
NssS'tx A-tx B'
p3822
(dp3823
g160
Nsg161
Nsg162
Nsg163
Nsg164
Nsg165
Nsg166
Nsssg191
(dp3824
S'tx B-tx A'
p3825
(dp3826
g160
Nsg161
Nsg162
Nsg163
Nsg164
Nsg165
Nsg166
NssS'tx A-tx B'
p3827
(dp3828
g160
Nsg161
Nsg162
Nsg163
Nsg164
Nsg165
Nsg166
Nsssg197
(dp3829
S'tx B-tx A'
p3830
(dp3831
g160
Nsg161
Nsg162
Nsg163
Nsg164
Nsg165
Nsg166
NssS'tx A-tx B'
p3832
(dp3833
g160
Nsg161
Nsg162
Nsg163
Nsg164
Nsg165
Nsg166
Nsssg203
(dp3834
g171
(dp3835
g160
Nsg161
Nsg162
Nsg163
Nsg164
Nsg165
Nsg166
Nssg173
(dp3836
g160
Nsg161
Nsg162
Nsg163
Nsg164
Nsg165
Nsg166
Nsssg207
(dp3837
g171
(dp3838
g160
Nsg161
Nsg162
Nsg163
Nsg164
Nsg165
Nsg166
Nssg173
(dp3839
g160
Nsg161
Nsg162
Nsg163
Nsg164
Nsg165
Nsg166
Nsssg211
(dp3840
g171
(dp3841
g160
Nsg161
Nsg162
Nsg163
Nsg164
Nsg165
Nsg166
Nssg173
(dp3842
g160
Nsg161
Nsg162
Nsg163
Nsg164
Nsg165
Nsg166
Nsssg215
(dp3843
S'tx B-tx A'
p3844
(dp3845
g160
Nsg161
Nsg162
Nsg163
Nsg164
Nsg165
Nsg166
NssS'tx A-tx B'
p3846
(dp3847
g160
Nsg161
Nsg162
Nsg163
Nsg164
Nsg165
Nsg166
Nssssg63
(dp3848
g171
(ima_dataset
TreatmentGroup
p3849
(dp3850
g68
(lp3851
g33
ag33
asg70
I0
sg43
g171
sbsg173
(ima_dataset
TreatmentGroup
p3852
(dp3853
g68
(lp3854
g33
ag33
asg70
I1
sg43
g173
sbssg77
g49
sg36
I00
sg151
I2
sbsg20
(ima_dataset
MetaAnalyticUnit
p3855
(dp3856
g36
I00
sg63
(dp3857
g65
(ima_dataset
TreatmentGroup
p3858
(dp3859
g68
(lp3860
F0.0
aF30.0
asg70
I0
sg43
g71
sbsg72
(ima_dataset
TreatmentGroup
p3861
(dp3862
g68
(lp3863
F2.0
aF30.0
asg70
I1
sg43
g76
sbssg77
g49
sg78
(dp3864
g238
(dp3865
Vtx B-tx A
p3866
(dp3867
g242
Nsg243
Nsg244
Nsg245
Nsg246
Nsg247
Nsg248
NssVtx A-tx B
p3868
(dp3869
g242
Nsg243
Nsg244
Nsg245
Nsg246
Nsg247
Nsg248
Nsssg251
(dp3870
g65
(dp3871
g242
Nsg243
Nsg244
Nsg245
Nsg246
Nsg247
Nsg248
Nssg72
(dp3872
g242
Nsg243
Nsg244
Nsg245
Nsg246
Nsg247
Nsg248
Nsssg255
(dp3873
g65
(dp3874
g242
Nsg243
Nsg244
Nsg245
Nsg246
Nsg247
Nsg248
Nssg72
(dp3875
g242
Nsg243
Nsg244
Nsg245
Nsg246
Nsg247
Nsg248
Nsssg259
(dp3876
Vtx B-tx A
p3877
(dp3878
g242
F4.604711709054017
sg243
F-1.3858358841858158
sg244
F1.6094379124341005
sg245
F99.95416281504153
sg246
F5.000000000000001
sg247
F0.25011464551267204
sg248
NssVtx A-tx B
p3879
(dp3880
g242
F1.3858358841858158
sg243
F-4.604711709054017
sg244
F-1.6094379124341005
sg245
F3.998166512601658
sg246
F0.19999999999999998
sg247
F0.010004585820506876
sg248
Nsssg265
(dp3881
Vtx B-tx A
p3882
(dp3883
g242
Nsg243
Nsg244
Nsg245
Nsg246
Nsg247
Nsg248
NssVtx A-tx B
p3884
(dp3885
g242
Nsg243
Nsg244
Nsg245
Nsg246
Nsg247
Nsg248
Nsssg271
(dp3886
Vtx B-tx A
p3887
(dp3888
g242
Nsg243
Nsg244
Nsg245
Nsg246
Nsg247
Nsg248
NssVtx A-tx B
p3889
(dp3890
g242
Nsg243
Nsg244
Nsg245
Nsg246
Nsg247
Nsg248
Nsssg277
(dp3891
Vtx B-tx A
p3892
(dp3893
g242
Nsg243
Nsg244
Nsg245
Nsg246
Nsg247
Nsg248
NssVtx A-tx B
p3894
(dp3895
g242
Nsg243
Nsg244
Nsg245
Nsg246
Nsg247
Nsg248
Nsssg283
(dp3896
Vtx B-tx A
p3897
(dp3898
g242
Nsg243
Nsg244
Nsg245
Nsg246
Nsg247
Nsg248
NssVtx A-tx B
p3899
(dp3900
g242
Nsg243
Nsg244
Nsg245
Nsg246
Nsg247
Nsg248
Nsssg289
(dp3901
g65
(dp3902
g242
Nsg243
Nsg244
Nsg245
Nsg246
Nsg247
Nsg248
Nssg72
(dp3903
g242
Nsg243
Nsg244
Nsg245
Nsg246
Nsg247
Nsg248
Nsssg293
(dp3904
g65
(dp3905
g242
Nsg243
Nsg244
Nsg245
Nsg246
Nsg247
Nsg248
Nssg72
(dp3906
g242
Nsg243
Nsg244
Nsg245
Nsg246
Nsg247
Nsg248
Nsssg297
(dp3907
g65
(dp3908
g242
Nsg243
Nsg244
Nsg245
Nsg246
Nsg247
Nsg248
Nssg72
(dp3909
g242
Nsg243
Nsg244
Nsg245
Nsg246
Nsg247
Nsg248
Nsssg301
(dp3910
Vtx B-tx A
p3911
(dp3912
g242
F4.756260130077342
sg243
F-1.4017391125316192
sg244
F1.6772605087728616
sg245
F116.310126746146
sg246
F5.350877192982456
sg247
F0.24616847677305567
sg248
NssVtx A-tx B
p3913
(dp3914
g242
F1.4017391125316196
sg243
F-4.756260130077343
sg244
F-1.6772605087728616
sg245
F4.062258551976528
sg246
F0.1868852459021741
sg247
F0.008597703639167233
sg149
F95.0
sg150
F1.57094704065546
sg248
F1.57094704065546
ssssg151
I2
sbssg25
(dp3915
g27
(ima_dataset
MetaAnalyticUnit
p3916
(dp3917
g78
(dp3918
g313
(dp3919
Vtx B-tx A
p3920
(dp3921
g317
Nsg318
Nsg319
Nsg320
Nsg321
Nsg322
Nsg323
NssVtx A-tx B
p3922
(dp3923
g317
Nsg318
Nsg319
Nsg320
Nsg321
Nsg322
Nsg323
Nsssg326
(dp3924
g65
(dp3925
g317
Nsg318
Nsg319
Nsg320
Nsg321
Nsg322
Nsg323
Nssg72
(dp3926
g317
Nsg318
Nsg319
Nsg320
Nsg321
Nsg322
Nsg323
Nsssg330
(dp3927
g65
(dp3928
g317
Nsg318
Nsg319
Nsg320
Nsg321
Nsg322
Nsg323
Nssg72
(dp3929
g317
Nsg318
Nsg319
Nsg320
Nsg321
Nsg322
Nsg323
Nsssg334
(dp3930
Vtx B-tx A
p3931
(dp3932
g317
Nsg318
Nsg319
Nsg320
Nsg321
Nsg322
Nsg323
NssVtx A-tx B
p3933
(dp3934
g317
Nsg318
Nsg319
Nsg320
Nsg321
Nsg322
Nsg323
Nsssg340
(dp3935
Vtx B-tx A
p3936
(dp3937
g317
Nsg318
Nsg319
Nsg320
Nsg321
Nsg322
Nsg323
NssVtx A-tx B
p3938
(dp3939
g317
Nsg318
Nsg319
Nsg320
Nsg321
Nsg322
Nsg323
Nsssg346
(dp3940
Vtx B-tx A
p3941
(dp3942
g317
Nsg318
Nsg319
Nsg320
Nsg321
Nsg322
Nsg323
NssVtx A-tx B
p3943
(dp3944
g317
Nsg318
Nsg319
Nsg320
Nsg321
Nsg322
Nsg323
Nsssg352
(dp3945
Vtx B-tx A
p3946
(dp3947
g317
Nsg318
Nsg319
Nsg320
Nsg321
Nsg322
Nsg323
NssVtx A-tx B
p3948
(dp3949
g317
Nsg318
Nsg319
Nsg320
Nsg321
Nsg322
Nsg323
Nsssg358
(dp3950
g65
(dp3951
g317
Nsg318
Nsg319
Nsg320
Nsg321
Nsg322
Nsg323
Nssg72
(dp3952
g317
Nsg318
Nsg319
Nsg320
Nsg321
Nsg322
Nsg323
Nsssg362
(dp3953
g65
(dp3954
g317
Nsg318
Nsg319
Nsg320
Nsg321
Nsg322
Nsg323
Nssg72
(dp3955
g317
Nsg318
Nsg319
Nsg320
Nsg321
Nsg322
Nsg323
Nsssg366
(dp3956
g65
(dp3957
g317
Nsg318
Nsg319
Nsg320
Nsg321
Nsg322
Nsg323
Nssg72
(dp3958
g317
Nsg318
Nsg319
Nsg320
Nsg321
Nsg322
Nsg323
Nsssg370
(dp3959
Vtx B-tx A
p3960
(dp3961
g317
Nsg318
Nsg319
Nsg320
Nsg321
Nsg322
Nsg323
NssVtx A-tx B
p3962
(dp3963
g317
Nsg318
Nsg319
Nsg320
Nsg321
Nsg322
Nsg149
F95.0
sg150
Nsg323
Nssssg63
(dp3964
g65
(ima_dataset
TreatmentGroup
p3965
(dp3966
g68
(lp3967
g33
ag33
asg70
I0
sg43
g65
sbsg72
(ima_dataset
TreatmentGroup
p3968
(dp3969
g68
(lp3970
g33
ag33
asg70
I1
sg43
g72
sbssg77
g55
sg36
I00
sg151
I2
sbsssg383
I00
sg384
I1991
sg385
Nsg70
I15
sba(ima_dataset
Study
p3971
(dp3972
g42
I00
sg43
VKlastersky
p3973
sg45
(dp3974
sg32
g33
sg47
(lp3975
g49
ag53
ag55
asg58
(dp3976
g7
(dp3977
g12
(ima_dataset
MetaAnalyticUnit
p3978
(dp3979
g36
I00
sg63
(dp3980
g65
(ima_dataset
TreatmentGroup
p3981
(dp3982
g68
(lp3983
F3.0
aF25.0
asg70
I0
sg43
g71
sbsg72
(ima_dataset
TreatmentGroup
p3984
(dp3985
g68
(lp3986
F3.0
aF25.0
asg70
I1
sg43
g76
sbssg77
g53
sg78
(dp3987
g80
(dp3988
Vtx B-tx A
p3989
(dp3990
g84
Nsg85
Nsg86
Nsg87
Nsg88
Nsg89
Nsg90
NssVtx A-tx B
p3991
(dp3992
g84
Nsg85
Nsg86
Nsg87
Nsg88
Nsg89
Nsg90
Nsssg93
(dp3993
g65
(dp3994
g84
Nsg85
Nsg86
Nsg87
Nsg88
Nsg89
Nsg90
Nssg72
(dp3995
g84
Nsg85
Nsg86
Nsg87
Nsg88
Nsg89
Nsg90
Nsssg97
(dp3996
g65
(dp3997
g84
Nsg85
Nsg86
Nsg87
Nsg88
Nsg89
Nsg90
Nssg72
(dp3998
g84
Nsg85
Nsg86
Nsg87
Nsg88
Nsg89
Nsg90
Nsssg101
(dp3999
Vtx B-tx A
p4000
(dp4001
g84
Nsg85
Nsg86
Nsg87
Nsg88
Nsg89
Nsg90
NssVtx A-tx B
p4002
(dp4003
g84
F1.5012181192198175
sg85
F-1.5012181192198175
sg86
F0.0
sg87
F4.487151628279847
sg88
F1.0
sg89
F0.22285852648651205
sg90
Nsssg107
(dp4004
Vtx B-tx A
p4005
(dp4006
g84
Nsg85
Nsg86
Nsg87
Nsg88
Nsg89
Nsg90
NssVtx A-tx B
p4007
(dp4008
g84
Nsg85
Nsg86
Nsg87
Nsg88
Nsg89
Nsg90
Nsssg113
(dp4009
Vtx B-tx A
p4010
(dp4011
g84
Nsg85
Nsg86
Nsg87
Nsg88
Nsg89
Nsg90
NssVtx A-tx B
p4012
(dp4013
g84
Nsg85
Nsg86
Nsg87
Nsg88
Nsg89
Nsg90
Nsssg119
(dp4014
Vtx B-tx A
p4015
(dp4016
g84
Nsg85
Nsg86
Nsg87
Nsg88
Nsg89
Nsg90
NssVtx A-tx B
p4017
(dp4018
g84
Nsg85
Nsg86
Nsg87
Nsg88
Nsg89
Nsg90
Nsssg125
(dp4019
Vtx B-tx A
p4020
(dp4021
g84
Nsg85
Nsg86
Nsg87
Nsg88
Nsg89
Nsg90
NssVtx A-tx B
p4022
(dp4023
g84
Nsg85
Nsg86
Nsg87
Nsg88
Nsg89
Nsg90
Nsssg131
(dp4024
g65
(dp4025
g84
Nsg85
Nsg86
Nsg87
Nsg88
Nsg89
Nsg90
Nssg72
(dp4026
g84
Nsg85
Nsg86
Nsg87
Nsg88
Nsg89
Nsg90
Nsssg135
(dp4027
g65
(dp4028
g84
Nsg85
Nsg86
Nsg87
Nsg88
Nsg89
Nsg90
Nssg72
(dp4029
g84
Nsg85
Nsg86
Nsg87
Nsg88
Nsg89
Nsg90
Nsssg139
(dp4030
g65
(dp4031
g84
Nsg85
Nsg86
Nsg87
Nsg88
Nsg89
Nsg90
Nssg72
(dp4032
g84
Nsg85
Nsg86
Nsg87
Nsg88
Nsg89
Nsg90
Nsssg143
(dp4033
Vtx B-tx A
p4034
(dp4035
g84
F1.4323284367170934
sg85
F-2.332162178075089
sg86
F-0.449916870678998
sg87
F4.188440365002866
sg88
F0.63768115942029
sg89
F0.09708560362404184
sg90
NssVtx A-tx B
p4036
(dp4037
g84
F1.705929680931611
sg85
F-1.705929680931611
sg86
F0.0
sg87
F5.506502578733861
sg88
F1.0
sg89
F0.18160347438354152
sg149
F95.0
sg150
F0.8703882797784892
sg90
F0.8703882797784892
ssssg151
I2
sbssg18
(dp4038
N(ima_dataset
MetaAnalyticUnit
p4039
(dp4040
g78
(dp4041
g156
(dp4042
S'tx B-tx A'
p4043
(dp4044
g160
Nsg161
Nsg162
Nsg163
Nsg164
Nsg165
Nsg166
NssS'tx A-tx B'
p4045
(dp4046
g160
Nsg161
Nsg162
Nsg163
Nsg164
Nsg165
Nsg166
Nsssg169
(dp4047
g171
(dp4048
g160
Nsg161
Nsg162
Nsg163
Nsg164
Nsg165
Nsg166
Nssg173
(dp4049
g160
Nsg161
Nsg162
Nsg163
Nsg164
Nsg165
Nsg166
Nsssg175
(dp4050
g171
(dp4051
g160
Nsg161
Nsg162
Nsg163
Nsg164
Nsg165
Nsg166
Nssg173
(dp4052
g160
Nsg161
Nsg162
Nsg163
Nsg164
Nsg165
Nsg166
Nsssg179
(dp4053
S'tx B-tx A'
p4054
(dp4055
g160
Nsg161
Nsg162
Nsg163
Nsg164
Nsg165
Nsg166
NssS'tx A-tx B'
p4056
(dp4057
g160
Nsg161
Nsg162
Nsg163
Nsg164
Nsg165
Nsg166
Nsssg185
(dp4058
S'tx B-tx A'
p4059
(dp4060
g160
Nsg161
Nsg162
Nsg163
Nsg164
Nsg165
Nsg166
NssS'tx A-tx B'
p4061
(dp4062
g160
Nsg161
Nsg162
Nsg163
Nsg164
Nsg165
Nsg166
Nsssg191
(dp4063
S'tx B-tx A'
p4064
(dp4065
g160
Nsg161
Nsg162
Nsg163
Nsg164
Nsg165
Nsg166
NssS'tx A-tx B'
p4066
(dp4067
g160
Nsg161
Nsg162
Nsg163
Nsg164
Nsg165
Nsg166
Nsssg197
(dp4068
S'tx B-tx A'
p4069
(dp4070
g160
Nsg161
Nsg162
Nsg163
Nsg164
Nsg165
Nsg166
NssS'tx A-tx B'
p4071
(dp4072
g160
Nsg161
Nsg162
Nsg163
Nsg164
Nsg165
Nsg166
Nsssg203
(dp4073
g171
(dp4074
g160
Nsg161
Nsg162
Nsg163
Nsg164
Nsg165
Nsg166
Nssg173
(dp4075
g160
Nsg161
Nsg162
Nsg163
Nsg164
Nsg165
Nsg166
Nsssg207
(dp4076
g171
(dp4077
g160
Nsg161
Nsg162
Nsg163
Nsg164
Nsg165
Nsg166
Nssg173
(dp4078
g160
Nsg161
Nsg162
Nsg163
Nsg164
Nsg165
Nsg166
Nsssg211
(dp4079
g171
(dp4080
g160
Nsg161
Nsg162
Nsg163
Nsg164
Nsg165
Nsg166
Nssg173
(dp4081
g160
Nsg161
Nsg162
Nsg163
Nsg164
Nsg165
Nsg166
Nsssg215
(dp4082
S'tx B-tx A'
p4083
(dp4084
g160
Nsg161
Nsg162
Nsg163
Nsg164
Nsg165
Nsg166
NssS'tx A-tx B'
p4085
(dp4086
g160
Nsg161
Nsg162
Nsg163
Nsg164
Nsg165
Nsg166
Nssssg63
(dp4087
g171
(ima_dataset
TreatmentGroup
p4088
(dp4089
g68
(lp4090
g33
ag33
asg70
I0
sg43
g171
sbsg173
(ima_dataset
TreatmentGroup
p4091
(dp4092
g68
(lp4093
g33
ag33
asg70
I1
sg43
g173
sbssg77
g49
sg36
I00
sg151
I2
sbsg20
(ima_dataset
MetaAnalyticUnit
p4094
(dp4095
g36
I00
sg63
(dp4096
g65
(ima_dataset
TreatmentGroup
p4097
(dp4098
g68
(lp4099
F11.0
aF25.0
asg70
I0
sg43
g71
sbsg72
(ima_dataset
TreatmentGroup
p4100
(dp4101
g68
(lp4102
F3.0
aF25.0
asg70
I1
sg43
g76
sbssg77
g49
sg78
(dp4103
g238
(dp4104
Vtx B-tx A
p4105
(dp4106
g242
Nsg243
Nsg244
Nsg245
Nsg246
Nsg247
Nsg248
NssVtx A-tx B
p4107
(dp4108
g242
Nsg243
Nsg244
Nsg245
Nsg246
Nsg247
Nsg248
Nsssg251
(dp4109
g65
(dp4110
g242
Nsg243
Nsg244
Nsg245
Nsg246
Nsg247
Nsg248
Nssg72
(dp4111
g242
Nsg243
Nsg244
Nsg245
Nsg246
Nsg247
Nsg248
Nsssg255
(dp4112
g65
(dp4113
g242
Nsg243
Nsg244
Nsg245
Nsg246
Nsg247
Nsg248
Nssg72
(dp4114
g242
Nsg243
Nsg244
Nsg245
Nsg246
Nsg247
Nsg248
Nsssg259
(dp4115
Vtx B-tx A
p4116
(dp4117
g242
F-0.149329464607324
sg243
F-2.4492365036531973
sg244
F-1.2992829841302607
sg245
F0.8612853051240409
sg246
F0.27272727272727276
sg247
F0.08635949649523408
sg248
NssVtx A-tx B
p4118
(dp4119
g242
F2.4492365036531973
sg243
F0.149329464607324
sg244
F1.2992829841302607
sg245
F11.579502435556545
sg246
F3.666666666666666
sg247
F1.161055452880369
sg248
Nsssg265
(dp4120
Vtx B-tx A
p4121
(dp4122
g242
Nsg243
Nsg244
Nsg245
Nsg246
Nsg247
Nsg248
NssVtx A-tx B
p4123
(dp4124
g242
Nsg243
Nsg244
Nsg245
Nsg246
Nsg247
Nsg248
Nsssg271
(dp4125
Vtx B-tx A
p4126
(dp4127
g242
Nsg243
Nsg244
Nsg245
Nsg246
Nsg247
Nsg248
NssVtx A-tx B
p4128
(dp4129
g242
Nsg243
Nsg244
Nsg245
Nsg246
Nsg247
Nsg248
Nsssg277
(dp4130
Vtx B-tx A
p4131
(dp4132
g242
Nsg243
Nsg244
Nsg245
Nsg246
Nsg247
Nsg248
NssVtx A-tx B
p4133
(dp4134
g242
Nsg243
Nsg244
Nsg245
Nsg246
Nsg247
Nsg248
Nsssg283
(dp4135
Vtx B-tx A
p4136
(dp4137
g242
Nsg243
Nsg244
Nsg245
Nsg246
Nsg247
Nsg248
NssVtx A-tx B
p4138
(dp4139
g242
Nsg243
Nsg244
Nsg245
Nsg246
Nsg247
Nsg248
Nsssg289
(dp4140
g65
(dp4141
g242
Nsg243
Nsg244
Nsg245
Nsg246
Nsg247
Nsg248
Nssg72
(dp4142
g242
Nsg243
Nsg244
Nsg245
Nsg246
Nsg247
Nsg248
Nsssg293
(dp4143
g65
(dp4144
g242
Nsg243
Nsg244
Nsg245
Nsg246
Nsg247
Nsg248
Nssg72
(dp4145
g242
Nsg243
Nsg244
Nsg245
Nsg246
Nsg247
Nsg248
Nsssg297
(dp4146
g65
(dp4147
g242
Nsg243
Nsg244
Nsg245
Nsg246
Nsg247
Nsg248
Nssg72
(dp4148
g242
Nsg243
Nsg244
Nsg245
Nsg246
Nsg247
Nsg248
Nsssg301
(dp4149
Vtx B-tx A
p4150
(dp4151
g242
F-0.30949437976630656
sg243
F-3.1930418359803294
sg244
F-1.751268107873318
sg245
F0.7338178956150252
sg246
F0.17355371900826447
sg247
F0.04104682314452796
sg248
NssVtx A-tx B
p4152
(dp4153
g242
F3.19304183598033
sg243
F0.30949437976630634
sg244
F1.751268107873318
sg245
F24.362421337179235
sg246
F5.761904761885644
sg247
F1.3627359130586159
sg149
F95.0
sg150
F0.7356123579206246
sg248
F0.7356123579206246
ssssg151
I2
sbssg25
(dp4154
g27
(ima_dataset
MetaAnalyticUnit
p4155
(dp4156
g78
(dp4157
g313
(dp4158
Vtx B-tx A
p4159
(dp4160
g317
Nsg318
Nsg319
Nsg320
Nsg321
Nsg322
Nsg323
NssVtx A-tx B
p4161
(dp4162
g317
Nsg318
Nsg319
Nsg320
Nsg321
Nsg322
Nsg323
Nsssg326
(dp4163
g65
(dp4164
g317
Nsg318
Nsg319
Nsg320
Nsg321
Nsg322
Nsg323
Nssg72
(dp4165
g317
Nsg318
Nsg319
Nsg320
Nsg321
Nsg322
Nsg323
Nsssg330
(dp4166
g65
(dp4167
g317
Nsg318
Nsg319
Nsg320
Nsg321
Nsg322
Nsg323
Nssg72
(dp4168
g317
Nsg318
Nsg319
Nsg320
Nsg321
Nsg322
Nsg323
Nsssg334
(dp4169
Vtx B-tx A
p4170
(dp4171
g317
Nsg318
Nsg319
Nsg320
Nsg321
Nsg322
Nsg323
NssVtx A-tx B
p4172
(dp4173
g317
Nsg318
Nsg319
Nsg320
Nsg321
Nsg322
Nsg323
Nsssg340
(dp4174
Vtx B-tx A
p4175
(dp4176
g317
Nsg318
Nsg319
Nsg320
Nsg321
Nsg322
Nsg323
NssVtx A-tx B
p4177
(dp4178
g317
Nsg318
Nsg319
Nsg320
Nsg321
Nsg322
Nsg323
Nsssg346
(dp4179
Vtx B-tx A
p4180
(dp4181
g317
Nsg318
Nsg319
Nsg320
Nsg321
Nsg322
Nsg323
NssVtx A-tx B
p4182
(dp4183
g317
Nsg318
Nsg319
Nsg320
Nsg321
Nsg322
Nsg323
Nsssg352
(dp4184
Vtx B-tx A
p4185
(dp4186
g317
Nsg318
Nsg319
Nsg320
Nsg321
Nsg322
Nsg323
NssVtx A-tx B
p4187
(dp4188
g317
Nsg318
Nsg319
Nsg320
Nsg321
Nsg322
Nsg323
Nsssg358
(dp4189
g65
(dp4190
g317
Nsg318
Nsg319
Nsg320
Nsg321
Nsg322
Nsg323
Nssg72
(dp4191
g317
Nsg318
Nsg319
Nsg320
Nsg321
Nsg322
Nsg323
Nsssg362
(dp4192
g65
(dp4193
g317
Nsg318
Nsg319
Nsg320
Nsg321
Nsg322
Nsg323
Nssg72
(dp4194
g317
Nsg318
Nsg319
Nsg320
Nsg321
Nsg322
Nsg323
Nsssg366
(dp4195
g65
(dp4196
g317
Nsg318
Nsg319
Nsg320
Nsg321
Nsg322
Nsg323
Nssg72
(dp4197
g317
Nsg318
Nsg319
Nsg320
Nsg321
Nsg322
Nsg323
Nsssg370
(dp4198
Vtx B-tx A
p4199
(dp4200
g317
Nsg318
Nsg319
Nsg320
Nsg321
Nsg322
Nsg323
NssVtx A-tx B
p4201
(dp4202
g317
Nsg318
Nsg319
Nsg320
Nsg321
Nsg322
Nsg149
F95.0
sg150
Nsg323
Nssssg63
(dp4203
g65
(ima_dataset
TreatmentGroup
p4204
(dp4205
g68
(lp4206
g33
ag33
asg70
I0
sg43
g65
sbsg72
(ima_dataset
TreatmentGroup
p4207
(dp4208
g68
(lp4209
g33
ag33
asg70
I1
sg43
g72
sbssg77
g55
sg36
I00
sg151
I2
sbsssg383
I00
sg384
I1977
sg385
Nsg70
I16
sba(ima_dataset
Study
p4210
(dp4211
g42
I00
sg43
VVanhaeverbeek
p4212
sg45
(dp4213
sg32
g33
sg47
(lp4214
g49
ag53
ag55
asg58
(dp4215
g7
(dp4216
g12
(ima_dataset
MetaAnalyticUnit
p4217
(dp4218
g36
I00
sg63
(dp4219
g65
(ima_dataset
TreatmentGroup
p4220
(dp4221
g68
(lp4222
F0.0
aF19.0
asg70
I0
sg43
g71
sbsg72
(ima_dataset
TreatmentGroup
p4223
(dp4224
g68
(lp4225
F1.0
aF20.0
asg70
I1
sg43
g76
sbssg77
g53
sg78
(dp4226
g80
(dp4227
Vtx B-tx A
p4228
(dp4229
g84
Nsg85
Nsg86
Nsg87
Nsg88
Nsg89
Nsg90
NssVtx A-tx B
p4230
(dp4231
g84
Nsg85
Nsg86
Nsg87
Nsg88
Nsg89
Nsg90
Nsssg93
(dp4232
g65
(dp4233
g84
Nsg85
Nsg86
Nsg87
Nsg88
Nsg89
Nsg90
Nssg72
(dp4234
g84
Nsg85
Nsg86
Nsg87
Nsg88
Nsg89
Nsg90
Nsssg97
(dp4235
g65
(dp4236
g84
Nsg85
Nsg86
Nsg87
Nsg88
Nsg89
Nsg90
Nssg72
(dp4237
g84
Nsg85
Nsg86
Nsg87
Nsg88
Nsg89
Nsg90
Nsssg101
(dp4238
Vtx B-tx A
p4239
(dp4240
g84
Nsg85
Nsg86
Nsg87
Nsg88
Nsg89
Nsg90
NssVtx A-tx B
p4241
(dp4242
g84
F2.09165692794998
sg85
F-4.191301176947334
sg86
F-1.0498221244986774
sg87
F8.098322390550601
sg88
F0.3500000000000001
sg89
F0.015126589692568587
sg90
Nsssg107
(dp4243
Vtx B-tx A
p4244
(dp4245
g84
Nsg85
Nsg86
Nsg87
Nsg88
Nsg89
Nsg90
NssVtx A-tx B
p4246
(dp4247
g84
Nsg85
Nsg86
Nsg87
Nsg88
Nsg89
Nsg90
Nsssg113
(dp4248
Vtx B-tx A
p4249
(dp4250
g84
Nsg85
Nsg86
Nsg87
Nsg88
Nsg89
Nsg90
NssVtx A-tx B
p4251
(dp4252
g84
Nsg85
Nsg86
Nsg87
Nsg88
Nsg89
Nsg90
Nsssg119
(dp4253
Vtx B-tx A
p4254
(dp4255
g84
Nsg85
Nsg86
Nsg87
Nsg88
Nsg89
Nsg90
NssVtx A-tx B
p4256
(dp4257
g84
Nsg85
Nsg86
Nsg87
Nsg88
Nsg89
Nsg90
Nsssg125
(dp4258
Vtx B-tx A
p4259
(dp4260
g84
Nsg85
Nsg86
Nsg87
Nsg88
Nsg89
Nsg90
NssVtx A-tx B
p4261
(dp4262
g84
Nsg85
Nsg86
Nsg87
Nsg88
Nsg89
Nsg90
Nsssg131
(dp4263
g65
(dp4264
g84
Nsg85
Nsg86
Nsg87
Nsg88
Nsg89
Nsg90
Nssg72
(dp4265
g84
Nsg85
Nsg86
Nsg87
Nsg88
Nsg89
Nsg90
Nsssg135
(dp4266
g65
(dp4267
g84
Nsg85
Nsg86
Nsg87
Nsg88
Nsg89
Nsg90
Nssg72
(dp4268
g84
Nsg85
Nsg86
Nsg87
Nsg88
Nsg89
Nsg90
Nsssg139
(dp4269
g65
(dp4270
g84
Nsg85
Nsg86
Nsg87
Nsg88
Nsg89
Nsg90
Nssg72
(dp4271
g84
Nsg85
Nsg86
Nsg87
Nsg88
Nsg89
Nsg90
Nsssg143
(dp4272
Vtx B-tx A
p4273
(dp4274
g84
F4.360189509124359
sg85
F-2.1629649317881396
sg86
F1.0986122886681096
sg87
F78.27196626944432
sg88
F2.9999999999999996
sg89
F0.11498369632134056
sg90
NssVtx A-tx B
p4275
(dp4276
g84
F2.1629649317881396
sg85
F-4.360189509124359
sg86
F-1.0986122886681096
sg87
F8.69688514106555
sg88
F0.3333333333327032
sg89
F0.012775966257982425
sg149
F95.0
sg150
F1.6641005886756872
sg90
F1.6641005886756872
ssssg151
I2
sbssg18
(dp4277
N(ima_dataset
MetaAnalyticUnit
p4278
(dp4279
g78
(dp4280
g156
(dp4281
S'tx B-tx A'
p4282
(dp4283
g160
Nsg161
Nsg162
Nsg163
Nsg164
Nsg165
Nsg166
NssS'tx A-tx B'
p4284
(dp4285
g160
Nsg161
Nsg162
Nsg163
Nsg164
Nsg165
Nsg166
Nsssg169
(dp4286
g171
(dp4287
g160
Nsg161
Nsg162
Nsg163
Nsg164
Nsg165
Nsg166
Nssg173
(dp4288
g160
Nsg161
Nsg162
Nsg163
Nsg164
Nsg165
Nsg166
Nsssg175
(dp4289
g171
(dp4290
g160
Nsg161
Nsg162
Nsg163
Nsg164
Nsg165
Nsg166
Nssg173
(dp4291
g160
Nsg161
Nsg162
Nsg163
Nsg164
Nsg165
Nsg166
Nsssg179
(dp4292
S'tx B-tx A'
p4293
(dp4294
g160
Nsg161
Nsg162
Nsg163
Nsg164
Nsg165
Nsg166
NssS'tx A-tx B'
p4295
(dp4296
g160
Nsg161
Nsg162
Nsg163
Nsg164
Nsg165
Nsg166
Nsssg185
(dp4297
S'tx B-tx A'
p4298
(dp4299
g160
Nsg161
Nsg162
Nsg163
Nsg164
Nsg165
Nsg166
NssS'tx A-tx B'
p4300
(dp4301
g160
Nsg161
Nsg162
Nsg163
Nsg164
Nsg165
Nsg166
Nsssg191
(dp4302
S'tx B-tx A'
p4303
(dp4304
g160
Nsg161
Nsg162
Nsg163
Nsg164
Nsg165
Nsg166
NssS'tx A-tx B'
p4305
(dp4306
g160
Nsg161
Nsg162
Nsg163
Nsg164
Nsg165
Nsg166
Nsssg197
(dp4307
S'tx B-tx A'
p4308
(dp4309
g160
Nsg161
Nsg162
Nsg163
Nsg164
Nsg165
Nsg166
NssS'tx A-tx B'
p4310
(dp4311
g160
Nsg161
Nsg162
Nsg163
Nsg164
Nsg165
Nsg166
Nsssg203
(dp4312
g171
(dp4313
g160
Nsg161
Nsg162
Nsg163
Nsg164
Nsg165
Nsg166
Nssg173
(dp4314
g160
Nsg161
Nsg162
Nsg163
Nsg164
Nsg165
Nsg166
Nsssg207
(dp4315
g171
(dp4316
g160
Nsg161
Nsg162
Nsg163
Nsg164
Nsg165
Nsg166
Nssg173
(dp4317
g160
Nsg161
Nsg162
Nsg163
Nsg164
Nsg165
Nsg166
Nsssg211
(dp4318
g171
(dp4319
g160
Nsg161
Nsg162
Nsg163
Nsg164
Nsg165
Nsg166
Nssg173
(dp4320
g160
Nsg161
Nsg162
Nsg163
Nsg164
Nsg165
Nsg166
Nsssg215
(dp4321
S'tx B-tx A'
p4322
(dp4323
g160
Nsg161
Nsg162
Nsg163
Nsg164
Nsg165
Nsg166
NssS'tx A-tx B'
p4324
(dp4325
g160
Nsg161
Nsg162
Nsg163
Nsg164
Nsg165
Nsg166
Nssssg63
(dp4326
g171
(ima_dataset
TreatmentGroup
p4327
(dp4328
g68
(lp4329
g33
ag33
asg70
I0
sg43
g171
sbsg173
(ima_dataset
TreatmentGroup
p4330
(dp4331
g68
(lp4332
g33
ag33
asg70
I1
sg43
g173
sbssg77
g49
sg36
I00
sg151
I2
sbsg20
(ima_dataset
MetaAnalyticUnit
p4333
(dp4334
g36
I00
sg63
(dp4335
g65
(ima_dataset
TreatmentGroup
p4336
(dp4337
g68
(lp4338
F0.0
aF19.0
asg70
I0
sg43
g71
sbsg72
(ima_dataset
TreatmentGroup
p4339
(dp4340
g68
(lp4341
F0.0
aF20.0
asg70
I1
sg43
g76
sbssg77
g49
sg78
(dp4342
g238
(dp4343
Vtx B-tx A
p4344
(dp4345
g242
Nsg243
Nsg244
Nsg245
Nsg246
Nsg247
Nsg248
NssVtx A-tx B
p4346
(dp4347
g242
Nsg243
Nsg244
Nsg245
Nsg246
Nsg247
Nsg248
Nsssg251
(dp4348
g65
(dp4349
g242
Nsg243
Nsg244
Nsg245
Nsg246
Nsg247
Nsg248
Nssg72
(dp4350
g242
Nsg243
Nsg244
Nsg245
Nsg246
Nsg247
Nsg248
Nsssg255
(dp4351
g65
(dp4352
g242
Nsg243
Nsg244
Nsg245
Nsg246
Nsg247
Nsg248
Nssg72
(dp4353
g242
Nsg243
Nsg244
Nsg245
Nsg246
Nsg247
Nsg248
Nsssg259
(dp4354
Vtx B-tx A
p4355
(dp4356
g242
F3.8230098992677988
sg243
F-3.920590227606663
sg244
F-0.04879016416943216
sg245
F45.74167917701218
sg246
F0.9523809523809522
sg247
F0.01982938743783337
sg248
NssVtx A-tx B
p4357
(dp4358
g242
F3.920590227606663
sg243
F-3.8230098992677988
sg244
F0.04879016416943216
sg245
F50.430201292655944
sg246
F1.0500000000000003
sg247
F0.0218618996502113
sg248
Nsssg265
(dp4359
Vtx B-tx A
p4360
(dp4361
g242
Nsg243
Nsg244
Nsg245
Nsg246
Nsg247
Nsg248
NssVtx A-tx B
p4362
(dp4363
g242
Nsg243
Nsg244
Nsg245
Nsg246
Nsg247
Nsg248
Nsssg271
(dp4364
Vtx B-tx A
p4365
(dp4366
g242
Nsg243
Nsg244
Nsg245
Nsg246
Nsg247
Nsg248
NssVtx A-tx B
p4367
(dp4368
g242
Nsg243
Nsg244
Nsg245
Nsg246
Nsg247
Nsg248
Nsssg277
(dp4369
Vtx B-tx A
p4370
(dp4371
g242
Nsg243
Nsg244
Nsg245
Nsg246
Nsg247
Nsg248
NssVtx A-tx B
p4372
(dp4373
g242
Nsg243
Nsg244
Nsg245
Nsg246
Nsg247
Nsg248
Nsssg283
(dp4374
Vtx B-tx A
p4375
(dp4376
g242
Nsg243
Nsg244
Nsg245
Nsg246
Nsg247
Nsg248
NssVtx A-tx B
p4377
(dp4378
g242
Nsg243
Nsg244
Nsg245
Nsg246
Nsg247
Nsg248
Nsssg289
(dp4379
g65
(dp4380
g242
Nsg243
Nsg244
Nsg245
Nsg246
Nsg247
Nsg248
Nssg72
(dp4381
g242
Nsg243
Nsg244
Nsg245
Nsg246
Nsg247
Nsg248
Nsssg293
(dp4382
g65
(dp4383
g242
Nsg243
Nsg244
Nsg245
Nsg246
Nsg247
Nsg248
Nssg72
(dp4384
g242
Nsg243
Nsg244
Nsg245
Nsg246
Nsg247
Nsg248
Nsssg297
(dp4385
g65
(dp4386
g242
Nsg243
Nsg244
Nsg245
Nsg246
Nsg247
Nsg248
Nssg72
(dp4387
g242
Nsg243
Nsg244
Nsg245
Nsg246
Nsg247
Nsg248
Nsssg301
(dp4388
Vtx B-tx A
p4389
(dp4390
g242
F3.918644440480029
sg243
F-4.018665281629352
sg244
F-0.05001042057466165
sg245
F50.33217026087645
sg246
F0.9512195121951217
sg247
F0.01797694309009455
sg248
NssVtx A-tx B
p4391
(dp4392
g242
F4.018665281629353
sg243
F-3.9186444404800294
sg244
F0.05001042057466165
sg245
F55.626810130564195
sg246
F1.051282051282092
sg247
F0.019868008766896664
sg149
F95.0
sg150
F2.0248611159995464
sg248
F2.0248611159995464
ssssg151
I2
sbssg25
(dp4393
g27
(ima_dataset
MetaAnalyticUnit
p4394
(dp4395
g78
(dp4396
g313
(dp4397
Vtx B-tx A
p4398
(dp4399
g317
Nsg318
Nsg319
Nsg320
Nsg321
Nsg322
Nsg323
NssVtx A-tx B
p4400
(dp4401
g317
Nsg318
Nsg319
Nsg320
Nsg321
Nsg322
Nsg323
Nsssg326
(dp4402
g65
(dp4403
g317
Nsg318
Nsg319
Nsg320
Nsg321
Nsg322
Nsg323
Nssg72
(dp4404
g317
Nsg318
Nsg319
Nsg320
Nsg321
Nsg322
Nsg323
Nsssg330
(dp4405
g65
(dp4406
g317
Nsg318
Nsg319
Nsg320
Nsg321
Nsg322
Nsg323
Nssg72
(dp4407
g317
Nsg318
Nsg319
Nsg320
Nsg321
Nsg322
Nsg323
Nsssg334
(dp4408
Vtx B-tx A
p4409
(dp4410
g317
Nsg318
Nsg319
Nsg320
Nsg321
Nsg322
Nsg323
NssVtx A-tx B
p4411
(dp4412
g317
Nsg318
Nsg319
Nsg320
Nsg321
Nsg322
Nsg323
Nsssg340
(dp4413
Vtx B-tx A
p4414
(dp4415
g317
Nsg318
Nsg319
Nsg320
Nsg321
Nsg322
Nsg323
NssVtx A-tx B
p4416
(dp4417
g317
Nsg318
Nsg319
Nsg320
Nsg321
Nsg322
Nsg323
Nsssg346
(dp4418
Vtx B-tx A
p4419
(dp4420
g317
Nsg318
Nsg319
Nsg320
Nsg321
Nsg322
Nsg323
NssVtx A-tx B
p4421
(dp4422
g317
Nsg318
Nsg319
Nsg320
Nsg321
Nsg322
Nsg323
Nsssg352
(dp4423
Vtx B-tx A
p4424
(dp4425
g317
Nsg318
Nsg319
Nsg320
Nsg321
Nsg322
Nsg323
NssVtx A-tx B
p4426
(dp4427
g317
Nsg318
Nsg319
Nsg320
Nsg321
Nsg322
Nsg323
Nsssg358
(dp4428
g65
(dp4429
g317
Nsg318
Nsg319
Nsg320
Nsg321
Nsg322
Nsg323
Nssg72
(dp4430
g317
Nsg318
Nsg319
Nsg320
Nsg321
Nsg322
Nsg323
Nsssg362
(dp4431
g65
(dp4432
g317
Nsg318
Nsg319
Nsg320
Nsg321
Nsg322
Nsg323
Nssg72
(dp4433
g317
Nsg318
Nsg319
Nsg320
Nsg321
Nsg322
Nsg323
Nsssg366
(dp4434
g65
(dp4435
g317
Nsg318
Nsg319
Nsg320
Nsg321
Nsg322
Nsg323
Nssg72
(dp4436
g317
Nsg318
Nsg319
Nsg320
Nsg321
Nsg322
Nsg323
Nsssg370
(dp4437
Vtx B-tx A
p4438
(dp4439
g317
Nsg318
Nsg319
Nsg320
Nsg321
Nsg322
Nsg323
NssVtx A-tx B
p4440
(dp4441
g317
Nsg318
Nsg319
Nsg320
Nsg321
Nsg322
Nsg149
F95.0
sg150
Nsg323
Nssssg63
(dp4442
g65
(ima_dataset
TreatmentGroup
p4443
(dp4444
g68
(lp4445
g33
ag33
asg70
I0
sg43
g65
sbsg72
(ima_dataset
TreatmentGroup
p4446
(dp4447
g68
(lp4448
g33
ag33
asg70
I1
sg43
g72
sbssg77
g55
sg36
I00
sg151
I2
sbsssg383
I00
sg384
I1993
sg385
Nsg70
I17
sba(ima_dataset
Study
p4449
(dp4450
g42
I00
sg43
VHollender
p4451
sg45
(dp4452
sg32
g33
sg47
(lp4453
g49
ag53
ag55
asg58
(dp4454
g7
(dp4455
g12
(ima_dataset
MetaAnalyticUnit
p4456
(dp4457
g36
I00
sg63
(dp4458
g65
(ima_dataset
TreatmentGroup
p4459
(dp4460
g68
(lp4461
F0.0
aF58.0
asg70
I0
sg43
g71
sbsg72
(ima_dataset
TreatmentGroup
p4462
(dp4463
g68
(lp4464
F3.0
aF56.0
asg70
I1
sg43
g76
sbssg77
g53
sg78
(dp4465
g80
(dp4466
Vtx B-tx A
p4467
(dp4468
g84
Nsg85
Nsg86
Nsg87
Nsg88
Nsg89
Nsg90
NssVtx A-tx B
p4469
(dp4470
g84
Nsg85
Nsg86
Nsg87
Nsg88
Nsg89
Nsg90
Nsssg93
(dp4471
g65
(dp4472
g84
Nsg85
Nsg86
Nsg87
Nsg88
Nsg89
Nsg90
Nssg72
(dp4473
g84
Nsg85
Nsg86
Nsg87
Nsg88
Nsg89
Nsg90
Nsssg97
(dp4474
g65
(dp4475
g84
Nsg85
Nsg86
Nsg87
Nsg88
Nsg89
Nsg90
Nssg72
(dp4476
g84
Nsg85
Nsg86
Nsg87
Nsg88
Nsg89
Nsg90
Nsssg101
(dp4477
Vtx B-tx A
p4478
(dp4479
g84
Nsg85
Nsg86
Nsg87
Nsg88
Nsg89
Nsg90
NssVtx A-tx B
p4480
(dp4481
g84
F0.9603474274824348
sg85
F-4.921140077735401
sg86
F-1.980396325126483
sg87
F2.6126040061955473
sg88
F0.1380145278450363
sg89
F0.00729081401204228
sg90
Nsssg107
(dp4482
Vtx B-tx A
p4483
(dp4484
g84
Nsg85
Nsg86
Nsg87
Nsg88
Nsg89
Nsg90
NssVtx A-tx B
p4485
(dp4486
g84
Nsg85
Nsg86
Nsg87
Nsg88
Nsg89
Nsg90
Nsssg113
(dp4487
Vtx B-tx A
p4488
(dp4489
g84
Nsg85
Nsg86
Nsg87
Nsg88
Nsg89
Nsg90
NssVtx A-tx B
p4490
(dp4491
g84
Nsg85
Nsg86
Nsg87
Nsg88
Nsg89
Nsg90
Nsssg119
(dp4492
Vtx B-tx A
p4493
(dp4494
g84
Nsg85
Nsg86
Nsg87
Nsg88
Nsg89
Nsg90
NssVtx A-tx B
p4495
(dp4496
g84
Nsg85
Nsg86
Nsg87
Nsg88
Nsg89
Nsg90
Nsssg125
(dp4497
Vtx B-tx A
p4498
(dp4499
g84
Nsg85
Nsg86
Nsg87
Nsg88
Nsg89
Nsg90
NssVtx A-tx B
p4500
(dp4501
g84
Nsg85
Nsg86
Nsg87
Nsg88
Nsg89
Nsg90
Nsssg131
(dp4502
g65
(dp4503
g84
Nsg85
Nsg86
Nsg87
Nsg88
Nsg89
Nsg90
Nssg72
(dp4504
g84
Nsg85
Nsg86
Nsg87
Nsg88
Nsg89
Nsg90
Nsssg135
(dp4505
g65
(dp4506
g84
Nsg85
Nsg86
Nsg87
Nsg88
Nsg89
Nsg90
Nssg72
(dp4507
g84
Nsg85
Nsg86
Nsg87
Nsg88
Nsg89
Nsg90
Nsssg139
(dp4508
g65
(dp4509
g84
Nsg85
Nsg86
Nsg87
Nsg88
Nsg89
Nsg90
Nssg72
(dp4510
g84
Nsg85
Nsg86
Nsg87
Nsg88
Nsg89
Nsg90
Nsssg143
(dp4511
Vtx B-tx A
p4512
(dp4513
g84
F5.021548308654056
sg85
F-0.9510378098717287
sg86
F2.0352552493911635
sg87
F151.64591680584826
sg88
F7.654205607476638
sg89
F0.38633986800010833
sg90
NssVtx A-tx B
p4514
(dp4515
g84
F0.9510378098717291
sg85
F-5.021548308654056
sg86
F-2.0352552493911635
sg87
F2.5883945272766695
sg88
F0.13064713064728262
sg89
F0.006594308775780312
sg149
F95.0
sg150
F1.523646905156621
sg90
F1.523646905156621
ssssg151
I2
sbssg18
(dp4516
N(ima_dataset
MetaAnalyticUnit
p4517
(dp4518
g78
(dp4519
g156
(dp4520
S'tx B-tx A'
p4521
(dp4522
g160
Nsg161
Nsg162
Nsg163
Nsg164
Nsg165
Nsg166
NssS'tx A-tx B'
p4523
(dp4524
g160
Nsg161
Nsg162
Nsg163
Nsg164
Nsg165
Nsg166
Nsssg169
(dp4525
g171
(dp4526
g160
Nsg161
Nsg162
Nsg163
Nsg164
Nsg165
Nsg166
Nssg173
(dp4527
g160
Nsg161
Nsg162
Nsg163
Nsg164
Nsg165
Nsg166
Nsssg175
(dp4528
g171
(dp4529
g160
Nsg161
Nsg162
Nsg163
Nsg164
Nsg165
Nsg166
Nssg173
(dp4530
g160
Nsg161
Nsg162
Nsg163
Nsg164
Nsg165
Nsg166
Nsssg179
(dp4531
S'tx B-tx A'
p4532
(dp4533
g160
Nsg161
Nsg162
Nsg163
Nsg164
Nsg165
Nsg166
NssS'tx A-tx B'
p4534
(dp4535
g160
Nsg161
Nsg162
Nsg163
Nsg164
Nsg165
Nsg166
Nsssg185
(dp4536
S'tx B-tx A'
p4537
(dp4538
g160
Nsg161
Nsg162
Nsg163
Nsg164
Nsg165
Nsg166
NssS'tx A-tx B'
p4539
(dp4540
g160
Nsg161
Nsg162
Nsg163
Nsg164
Nsg165
Nsg166
Nsssg191
(dp4541
S'tx B-tx A'
p4542
(dp4543
g160
Nsg161
Nsg162
Nsg163
Nsg164
Nsg165
Nsg166
NssS'tx A-tx B'
p4544
(dp4545
g160
Nsg161
Nsg162
Nsg163
Nsg164
Nsg165
Nsg166
Nsssg197
(dp4546
S'tx B-tx A'
p4547
(dp4548
g160
Nsg161
Nsg162
Nsg163
Nsg164
Nsg165
Nsg166
NssS'tx A-tx B'
p4549
(dp4550
g160
Nsg161
Nsg162
Nsg163
Nsg164
Nsg165
Nsg166
Nsssg203
(dp4551
g171
(dp4552
g160
Nsg161
Nsg162
Nsg163
Nsg164
Nsg165
Nsg166
Nssg173
(dp4553
g160
Nsg161
Nsg162
Nsg163
Nsg164
Nsg165
Nsg166
Nsssg207
(dp4554
g171
(dp4555
g160
Nsg161
Nsg162
Nsg163
Nsg164
Nsg165
Nsg166
Nssg173
(dp4556
g160
Nsg161
Nsg162
Nsg163
Nsg164
Nsg165
Nsg166
Nsssg211
(dp4557
g171
(dp4558
g160
Nsg161
Nsg162
Nsg163
Nsg164
Nsg165
Nsg166
Nssg173
(dp4559
g160
Nsg161
Nsg162
Nsg163
Nsg164
Nsg165
Nsg166
Nsssg215
(dp4560
S'tx B-tx A'
p4561
(dp4562
g160
Nsg161
Nsg162
Nsg163
Nsg164
Nsg165
Nsg166
NssS'tx A-tx B'
p4563
(dp4564
g160
Nsg161
Nsg162
Nsg163
Nsg164
Nsg165
Nsg166
Nssssg63
(dp4565
g171
(ima_dataset
TreatmentGroup
p4566
(dp4567
g68
(lp4568
g33
ag33
asg70
I0
sg43
g171
sbsg173
(ima_dataset
TreatmentGroup
p4569
(dp4570
g68
(lp4571
g33
ag33
asg70
I1
sg43
g173
sbssg77
g49
sg36
I00
sg151
I2
sbsg20
(ima_dataset
MetaAnalyticUnit
p4572
(dp4573
g36
I00
sg63
(dp4574
g65
(ima_dataset
TreatmentGroup
p4575
(dp4576
g68
(lp4577
F0.0
aF58.0
asg70
I0
sg43
g71
sbsg72
(ima_dataset
TreatmentGroup
p4578
(dp4579
g68
(lp4580
F1.0
aF56.0
asg70
I1
sg43
g76
sbssg77
g49
sg78
(dp4581
g238
(dp4582
Vtx B-tx A
p4583
(dp4584
g242
Nsg243
Nsg244
Nsg245
Nsg246
Nsg247
Nsg248
NssVtx A-tx B
p4585
(dp4586
g242
Nsg243
Nsg244
Nsg245
Nsg246
Nsg247
Nsg248
Nsssg251
(dp4587
g65
(dp4588
g242
Nsg243
Nsg244
Nsg245
Nsg246
Nsg247
Nsg248
Nssg72
(dp4589
g242
Nsg243
Nsg244
Nsg245
Nsg246
Nsg247
Nsg248
Nsssg255
(dp4590
g65
(dp4591
g242
Nsg243
Nsg244
Nsg245
Nsg246
Nsg247
Nsg248
Nssg72
(dp4592
g242
Nsg243
Nsg244
Nsg245
Nsg246
Nsg247
Nsg248
Nsssg259
(dp4593
Vtx B-tx A
p4594
(dp4595
g242
F4.312939137254544
sg243
F-2.0467422077759854
sg244
F1.1330984647392794
sg245
F74.65960159798978
sg246
F3.105263157894738
sg247
F0.12915497904341922
sg248
NssVtx A-tx B
p4596
(dp4597
g242
F2.0467422077759854
sg243
F-4.312939137254544
sg244
F-1.1330984647392794
sg245
F7.742636074942344
sg246
F0.3220338983050846
sg247
F0.013394124514413765
sg248
Nsssg265
(dp4598
Vtx B-tx A
p4599
(dp4600
g242
Nsg243
Nsg244
Nsg245
Nsg246
Nsg247
Nsg248
NssVtx A-tx B
p4601
(dp4602
g242
Nsg243
Nsg244
Nsg245
Nsg246
Nsg247
Nsg248
Nsssg271
(dp4603
Vtx B-tx A
p4604
(dp4605
g242
Nsg243
Nsg244
Nsg245
Nsg246
Nsg247
Nsg248
NssVtx A-tx B
p4606
(dp4607
g242
Nsg243
Nsg244
Nsg245
Nsg246
Nsg247
Nsg248
Nsssg277
(dp4608
Vtx B-tx A
p4609
(dp4610
g242
Nsg243
Nsg244
Nsg245
Nsg246
Nsg247
Nsg248
NssVtx A-tx B
p4611
(dp4612
g242
Nsg243
Nsg244
Nsg245
Nsg246
Nsg247
Nsg248
Nsssg283
(dp4613
Vtx B-tx A
p4614
(dp4615
g242
Nsg243
Nsg244
Nsg245
Nsg246
Nsg247
Nsg248
NssVtx A-tx B
p4616
(dp4617
g242
Nsg243
Nsg244
Nsg245
Nsg246
Nsg247
Nsg248
Nsssg289
(dp4618
g65
(dp4619
g242
Nsg243
Nsg244
Nsg245
Nsg246
Nsg247
Nsg248
Nssg72
(dp4620
g242
Nsg243
Nsg244
Nsg245
Nsg246
Nsg247
Nsg248
Nsssg293
(dp4621
g65
(dp4622
g242
Nsg243
Nsg244
Nsg245
Nsg246
Nsg247
Nsg248
Nssg72
(dp4623
g242
Nsg243
Nsg244
Nsg245
Nsg246
Nsg247
Nsg248
Nsssg297
(dp4624
g65
(dp4625
g242
Nsg243
Nsg244
Nsg245
Nsg246
Nsg247
Nsg248
Nssg72
(dp4626
g242
Nsg243
Nsg244
Nsg245
Nsg246
Nsg247
Nsg248
Nsssg301
(dp4627
Vtx B-tx A
p4628
(dp4629
g242
F4.372866120460171
sg243
F-2.070354076153107
sg244
F1.151256022153532
sg245
F79.27050523776249
sg246
F3.162162162162163
sg247
F0.12614111023789315
sg248
NssVtx A-tx B
p4630
(dp4631
g242
F2.0703540761531074
sg243
F-4.372866120460172
sg244
F-1.151256022153532
sg245
F7.927629605534344
sg246
F0.3162393162404331
sg247
F0.012615032501695163
sg149
F95.0
sg150
F1.6437088251204048
sg248
F1.6437088251204048
ssssg151
I2
sbssg25
(dp4632
g27
(ima_dataset
MetaAnalyticUnit
p4633
(dp4634
g78
(dp4635
g313
(dp4636
Vtx B-tx A
p4637
(dp4638
g317
Nsg318
Nsg319
Nsg320
Nsg321
Nsg322
Nsg323
NssVtx A-tx B
p4639
(dp4640
g317
Nsg318
Nsg319
Nsg320
Nsg321
Nsg322
Nsg323
Nsssg326
(dp4641
g65
(dp4642
g317
Nsg318
Nsg319
Nsg320
Nsg321
Nsg322
Nsg323
Nssg72
(dp4643
g317
Nsg318
Nsg319
Nsg320
Nsg321
Nsg322
Nsg323
Nsssg330
(dp4644
g65
(dp4645
g317
Nsg318
Nsg319
Nsg320
Nsg321
Nsg322
Nsg323
Nssg72
(dp4646
g317
Nsg318
Nsg319
Nsg320
Nsg321
Nsg322
Nsg323
Nsssg334
(dp4647
Vtx B-tx A
p4648
(dp4649
g317
Nsg318
Nsg319
Nsg320
Nsg321
Nsg322
Nsg323
NssVtx A-tx B
p4650
(dp4651
g317
Nsg318
Nsg319
Nsg320
Nsg321
Nsg322
Nsg323
Nsssg340
(dp4652
Vtx B-tx A
p4653
(dp4654
g317
Nsg318
Nsg319
Nsg320
Nsg321
Nsg322
Nsg323
NssVtx A-tx B
p4655
(dp4656
g317
Nsg318
Nsg319
Nsg320
Nsg321
Nsg322
Nsg323
Nsssg346
(dp4657
Vtx B-tx A
p4658
(dp4659
g317
Nsg318
Nsg319
Nsg320
Nsg321
Nsg322
Nsg323
NssVtx A-tx B
p4660
(dp4661
g317
Nsg318
Nsg319
Nsg320
Nsg321
Nsg322
Nsg323
Nsssg352
(dp4662
Vtx B-tx A
p4663
(dp4664
g317
Nsg318
Nsg319
Nsg320
Nsg321
Nsg322
Nsg323
NssVtx A-tx B
p4665
(dp4666
g317
Nsg318
Nsg319
Nsg320
Nsg321
Nsg322
Nsg323
Nsssg358
(dp4667
g65
(dp4668
g317
Nsg318
Nsg319
Nsg320
Nsg321
Nsg322
Nsg323
Nssg72
(dp4669
g317
Nsg318
Nsg319
Nsg320
Nsg321
Nsg322
Nsg323
Nsssg362
(dp4670
g65
(dp4671
g317
Nsg318
Nsg319
Nsg320
Nsg321
Nsg322
Nsg323
Nssg72
(dp4672
g317
Nsg318
Nsg319
Nsg320
Nsg321
Nsg322
Nsg323
Nsssg366
(dp4673
g65
(dp4674
g317
Nsg318
Nsg319
Nsg320
Nsg321
Nsg322
Nsg323
Nssg72
(dp4675
g317
Nsg318
Nsg319
Nsg320
Nsg321
Nsg322
Nsg323
Nsssg370
(dp4676
Vtx B-tx A
p4677
(dp4678
g317
Nsg318
Nsg319
Nsg320
Nsg321
Nsg322
Nsg323
NssVtx A-tx B
p4679
(dp4680
g317
Nsg318
Nsg319
Nsg320
Nsg321
Nsg322
Nsg149
F95.0
sg150
Nsg323
Nssssg63
(dp4681
g65
(ima_dataset
TreatmentGroup
p4682
(dp4683
g68
(lp4684
g33
ag33
asg70
I0
sg43
g65
sbsg72
(ima_dataset
TreatmentGroup
p4685
(dp4686
g68
(lp4687
g33
ag33
asg70
I1
sg43
g72
sbssg77
g55
sg36
I00
sg151
I2
sbsssg383
I00
sg384
I1989
sg385
Nsg70
I18
sba(ima_dataset
Study
p4688
(dp4689
g42
I00
sg43
g33
sg45
(dp4690
sg32
g33
sg47
(lp4691
g49
ag53
ag55
asg58
(dp4692
g7
(dp4693
g12
(ima_dataset
MetaAnalyticUnit
p4694
(dp4695
g36
I00
sg63
(dp4696
g65
(ima_dataset
TreatmentGroup
p4697
(dp4698
g68
(lp4699
g33
ag33
asg70
I0
sg43
g71
sbsg72
(ima_dataset
TreatmentGroup
p4700
(dp4701
g68
(lp4702
g33
ag33
asg70
I1
sg43
g76
sbssg77
g53
sg78
(dp4703
g80
(dp4704
Vtx B-tx A
p4705
(dp4706
g84
Nsg85
Nsg86
Nsg87
Nsg88
Nsg89
Nsg90
NssVtx A-tx B
p4707
(dp4708
g84
Nsg85
Nsg86
Nsg87
Nsg88
Nsg89
Nsg90
Nsssg93
(dp4709
g65
(dp4710
g84
Nsg85
Nsg86
Nsg87
Nsg88
Nsg89
Nsg90
Nssg72
(dp4711
g84
Nsg85
Nsg86
Nsg87
Nsg88
Nsg89
Nsg90
Nsssg97
(dp4712
g65
(dp4713
g84
Nsg85
Nsg86
Nsg87
Nsg88
Nsg89
Nsg90
Nssg72
(dp4714
g84
Nsg85
Nsg86
Nsg87
Nsg88
Nsg89
Nsg90
Nsssg101
(dp4715
Vtx B-tx A
p4716
(dp4717
g84
Nsg85
Nsg86
Nsg87
Nsg88
Nsg89
Nsg90
NssVtx A-tx B
p4718
(dp4719
g84
Nsg85
Nsg86
Nsg87
Nsg88
Nsg89
Nsg90
Nsssg107
(dp4720
Vtx B-tx A
p4721
(dp4722
g84
Nsg85
Nsg86
Nsg87
Nsg88
Nsg89
Nsg90
NssVtx A-tx B
p4723
(dp4724
g84
Nsg85
Nsg86
Nsg87
Nsg88
Nsg89
Nsg90
Nsssg113
(dp4725
Vtx B-tx A
p4726
(dp4727
g84
Nsg85
Nsg86
Nsg87
Nsg88
Nsg89
Nsg90
NssVtx A-tx B
p4728
(dp4729
g84
Nsg85
Nsg86
Nsg87
Nsg88
Nsg89
Nsg90
Nsssg119
(dp4730
Vtx B-tx A
p4731
(dp4732
g84
Nsg85
Nsg86
Nsg87
Nsg88
Nsg89
Nsg90
NssVtx A-tx B
p4733
(dp4734
g84
Nsg85
Nsg86
Nsg87
Nsg88
Nsg89
Nsg90
Nsssg125
(dp4735
Vtx B-tx A
p4736
(dp4737
g84
Nsg85
Nsg86
Nsg87
Nsg88
Nsg89
Nsg90
NssVtx A-tx B
p4738
(dp4739
g84
Nsg85
Nsg86
Nsg87
Nsg88
Nsg89
Nsg90
Nsssg131
(dp4740
g65
(dp4741
g84
Nsg85
Nsg86
Nsg87
Nsg88
Nsg89
Nsg90
Nssg72
(dp4742
g84
Nsg85
Nsg86
Nsg87
Nsg88
Nsg89
Nsg90
Nsssg135
(dp4743
g65
(dp4744
g84
Nsg85
Nsg86
Nsg87
Nsg88
Nsg89
Nsg90
Nssg72
(dp4745
g84
Nsg85
Nsg86
Nsg87
Nsg88
Nsg89
Nsg90
Nsssg139
(dp4746
g65
(dp4747
g84
Nsg85
Nsg86
Nsg87
Nsg88
Nsg89
Nsg90
Nssg72
(dp4748
g84
Nsg85
Nsg86
Nsg87
Nsg88
Nsg89
Nsg90
Nsssg143
(dp4749
Vtx B-tx A
p4750
(dp4751
g84
Nsg85
Nsg86
Nsg87
Nsg88
Nsg89
Nsg90
NssVtx A-tx B
p4752
(dp4753
g84
Nsg85
Nsg86
Nsg87
Nsg88
Nsg89
Nsg90
Nssssg151
I2
sbssg18
(dp4754
N(ima_dataset
MetaAnalyticUnit
p4755
(dp4756
g78
(dp4757
g156
(dp4758
S'tx B-tx A'
p4759
(dp4760
g160
Nsg161
Nsg162
Nsg163
Nsg164
Nsg165
Nsg166
NssS'tx A-tx B'
p4761
(dp4762
g160
Nsg161
Nsg162
Nsg163
Nsg164
Nsg165
Nsg166
Nsssg169
(dp4763
g171
(dp4764
g160
Nsg161
Nsg162
Nsg163
Nsg164
Nsg165
Nsg166
Nssg173
(dp4765
g160
Nsg161
Nsg162
Nsg163
Nsg164
Nsg165
Nsg166
Nsssg175
(dp4766
g171
(dp4767
g160
Nsg161
Nsg162
Nsg163
Nsg164
Nsg165
Nsg166
Nssg173
(dp4768
g160
Nsg161
Nsg162
Nsg163
Nsg164
Nsg165
Nsg166
Nsssg179
(dp4769
S'tx B-tx A'
p4770
(dp4771
g160
Nsg161
Nsg162
Nsg163
Nsg164
Nsg165
Nsg166
NssS'tx A-tx B'
p4772
(dp4773
g160
Nsg161
Nsg162
Nsg163
Nsg164
Nsg165
Nsg166
Nsssg185
(dp4774
S'tx B-tx A'
p4775
(dp4776
g160
Nsg161
Nsg162
Nsg163
Nsg164
Nsg165
Nsg166
NssS'tx A-tx B'
p4777
(dp4778
g160
Nsg161
Nsg162
Nsg163
Nsg164
Nsg165
Nsg166
Nsssg191
(dp4779
S'tx B-tx A'
p4780
(dp4781
g160
Nsg161
Nsg162
Nsg163
Nsg164
Nsg165
Nsg166
NssS'tx A-tx B'
p4782
(dp4783
g160
Nsg161
Nsg162
Nsg163
Nsg164
Nsg165
Nsg166
Nsssg197
(dp4784
S'tx B-tx A'
p4785
(dp4786
g160
Nsg161
Nsg162
Nsg163
Nsg164
Nsg165
Nsg166
NssS'tx A-tx B'
p4787
(dp4788
g160
Nsg161
Nsg162
Nsg163
Nsg164
Nsg165
Nsg166
Nsssg203
(dp4789
g171
(dp4790
g160
Nsg161
Nsg162
Nsg163
Nsg164
Nsg165
Nsg166
Nssg173
(dp4791
g160
Nsg161
Nsg162
Nsg163
Nsg164
Nsg165
Nsg166
Nsssg207
(dp4792
g171
(dp4793
g160
Nsg161
Nsg162
Nsg163
Nsg164
Nsg165
Nsg166
Nssg173
(dp4794
g160
Nsg161
Nsg162
Nsg163
Nsg164
Nsg165
Nsg166
Nsssg211
(dp4795
g171
(dp4796
g160
Nsg161
Nsg162
Nsg163
Nsg164
Nsg165
Nsg166
Nssg173
(dp4797
g160
Nsg161
Nsg162
Nsg163
Nsg164
Nsg165
Nsg166
Nsssg215
(dp4798
S'tx B-tx A'
p4799
(dp4800
g160
Nsg161
Nsg162
Nsg163
Nsg164
Nsg165
Nsg166
NssS'tx A-tx B'
p4801
(dp4802
g160
Nsg161
Nsg162
Nsg163
Nsg164
Nsg165
Nsg166
Nssssg63
(dp4803
g171
(ima_dataset
TreatmentGroup
p4804
(dp4805
g68
(lp4806
g33
ag33
asg70
I0
sg43
g171
sbsg173
(ima_dataset
TreatmentGroup
p4807
(dp4808
g68
(lp4809
g33
ag33
asg70
I1
sg43
g173
sbssg77
g49
sg36
I00
sg151
I2
sbsg20
(ima_dataset
MetaAnalyticUnit
p4810
(dp4811
g36
I00
sg63
(dp4812
g65
(ima_dataset
TreatmentGroup
p4813
(dp4814
g68
(lp4815
g33
ag33
asg70
I0
sg43
g71
sbsg72
(ima_dataset
TreatmentGroup
p4816
(dp4817
g68
(lp4818
g33
ag33
asg70
I1
sg43
g76
sbssg77
g49
sg78
(dp4819
g238
(dp4820
Vtx B-tx A
p4821
(dp4822
g242
Nsg243
Nsg244
Nsg245
Nsg246
Nsg247
Nsg248
NssVtx A-tx B
p4823
(dp4824
g242
Nsg243
Nsg244
Nsg245
Nsg246
Nsg247
Nsg248
Nsssg251
(dp4825
g65
(dp4826
g242
Nsg243
Nsg244
Nsg245
Nsg246
Nsg247
Nsg248
Nssg72
(dp4827
g242
Nsg243
Nsg244
Nsg245
Nsg246
Nsg247
Nsg248
Nsssg255
(dp4828
g65
(dp4829
g242
Nsg243
Nsg244
Nsg245
Nsg246
Nsg247
Nsg248
Nssg72
(dp4830
g242
Nsg243
Nsg244
Nsg245
Nsg246
Nsg247
Nsg248
Nsssg259
(dp4831
Vtx B-tx A
p4832
(dp4833
g242
Nsg243
Nsg244
Nsg245
Nsg246
Nsg247
Nsg248
NssVtx A-tx B
p4834
(dp4835
g242
Nsg243
Nsg244
Nsg245
Nsg246
Nsg247
Nsg248
Nsssg265
(dp4836
Vtx B-tx A
p4837
(dp4838
g242
Nsg243
Nsg244
Nsg245
Nsg246
Nsg247
Nsg248
NssVtx A-tx B
p4839
(dp4840
g242
Nsg243
Nsg244
Nsg245
Nsg246
Nsg247
Nsg248
Nsssg271
(dp4841
Vtx B-tx A
p4842
(dp4843
g242
Nsg243
Nsg244
Nsg245
Nsg246
Nsg247
Nsg248
NssVtx A-tx B
p4844
(dp4845
g242
Nsg243
Nsg244
Nsg245
Nsg246
Nsg247
Nsg248
Nsssg277
(dp4846
Vtx B-tx A
p4847
(dp4848
g242
Nsg243
Nsg244
Nsg245
Nsg246
Nsg247
Nsg248
NssVtx A-tx B
p4849
(dp4850
g242
Nsg243
Nsg244
Nsg245
Nsg246
Nsg247
Nsg248
Nsssg283
(dp4851
Vtx B-tx A
p4852
(dp4853
g242
Nsg243
Nsg244
Nsg245
Nsg246
Nsg247
Nsg248
NssVtx A-tx B
p4854
(dp4855
g242
Nsg243
Nsg244
Nsg245
Nsg246
Nsg247
Nsg248
Nsssg289
(dp4856
g65
(dp4857
g242
Nsg243
Nsg244
Nsg245
Nsg246
Nsg247
Nsg248
Nssg72
(dp4858
g242
Nsg243
Nsg244
Nsg245
Nsg246
Nsg247
Nsg248
Nsssg293
(dp4859
g65
(dp4860
g242
Nsg243
Nsg244
Nsg245
Nsg246
Nsg247
Nsg248
Nssg72
(dp4861
g242
Nsg243
Nsg244
Nsg245
Nsg246
Nsg247
Nsg248
Nsssg297
(dp4862
g65
(dp4863
g242
Nsg243
Nsg244
Nsg245
Nsg246
Nsg247
Nsg248
Nssg72
(dp4864
g242
Nsg243
Nsg244
Nsg245
Nsg246
Nsg247
Nsg248
Nsssg301
(dp4865
Vtx B-tx A
p4866
(dp4867
g242
Nsg243
Nsg244
Nsg245
Nsg246
Nsg247
Nsg248
NssVtx A-tx B
p4868
(dp4869
g242
Nsg243
Nsg244
Nsg245
Nsg246
Nsg247
Nsg248
Nssssg151
I2
sbssg25
(dp4870
g27
(ima_dataset
MetaAnalyticUnit
p4871
(dp4872
g78
(dp4873
g313
(dp4874
Vtx B-tx A
p4875
(dp4876
g317
Nsg318
Nsg319
Nsg320
Nsg321
Nsg322
Nsg323
NssVtx A-tx B
p4877
(dp4878
g317
Nsg318
Nsg319
Nsg320
Nsg321
Nsg322
Nsg323
Nsssg326
(dp4879
g65
(dp4880
g317
Nsg318
Nsg319
Nsg320
Nsg321
Nsg322
Nsg323
Nssg72
(dp4881
g317
Nsg318
Nsg319
Nsg320
Nsg321
Nsg322
Nsg323
Nsssg330
(dp4882
g65
(dp4883
g317
Nsg318
Nsg319
Nsg320
Nsg321
Nsg322
Nsg323
Nssg72
(dp4884
g317
Nsg318
Nsg319
Nsg320
Nsg321
Nsg322
Nsg323
Nsssg334
(dp4885
Vtx B-tx A
p4886
(dp4887
g317
Nsg318
Nsg319
Nsg320
Nsg321
Nsg322
Nsg323
NssVtx A-tx B
p4888
(dp4889
g317
Nsg318
Nsg319
Nsg320
Nsg321
Nsg322
Nsg323
Nsssg340
(dp4890
Vtx B-tx A
p4891
(dp4892
g317
Nsg318
Nsg319
Nsg320
Nsg321
Nsg322
Nsg323
NssVtx A-tx B
p4893
(dp4894
g317
Nsg318
Nsg319
Nsg320
Nsg321
Nsg322
Nsg323
Nsssg346
(dp4895
Vtx B-tx A
p4896
(dp4897
g317
Nsg318
Nsg319
Nsg320
Nsg321
Nsg322
Nsg323
NssVtx A-tx B
p4898
(dp4899
g317
Nsg318
Nsg319
Nsg320
Nsg321
Nsg322
Nsg323
Nsssg352
(dp4900
Vtx B-tx A
p4901
(dp4902
g317
Nsg318
Nsg319
Nsg320
Nsg321
Nsg322
Nsg323
NssVtx A-tx B
p4903
(dp4904
g317
Nsg318
Nsg319
Nsg320
Nsg321
Nsg322
Nsg323
Nsssg358
(dp4905
g65
(dp4906
g317
Nsg318
Nsg319
Nsg320
Nsg321
Nsg322
Nsg323
Nssg72
(dp4907
g317
Nsg318
Nsg319
Nsg320
Nsg321
Nsg322
Nsg323
Nsssg362
(dp4908
g65
(dp4909
g317
Nsg318
Nsg319
Nsg320
Nsg321
Nsg322
Nsg323
Nssg72
(dp4910
g317
Nsg318
Nsg319
Nsg320
Nsg321
Nsg322
Nsg323
Nsssg366
(dp4911
g65
(dp4912
g317
Nsg318
Nsg319
Nsg320
Nsg321
Nsg322
Nsg323
Nssg72
(dp4913
g317
Nsg318
Nsg319
Nsg320
Nsg321
Nsg322
Nsg323
Nsssg370
(dp4914
Vtx B-tx A
p4915
(dp4916
g317
Nsg318
Nsg319
Nsg320
Nsg321
Nsg322
Nsg323
NssVtx A-tx B
p4917
(dp4918
g317
Nsg318
Nsg319
Nsg320
Nsg321
Nsg322
Nsg323
Nssssg63
(dp4919
g65
(ima_dataset
TreatmentGroup
p4920
(dp4921
g68
(lp4922
g33
ag33
asg70
I0
sg43
g65
sbsg72
(ima_dataset
TreatmentGroup
p4923
(dp4924
g68
(lp4925
g33
ag33
asg70
I1
sg43
g72
sbssg77
g55
sg36
I00
sg151
I2
sbsssg383
I00
sg384
Nsg385
Nsg70
I19
sbasS'covariates'
p4926
(lp4927
sb.